
finalProj.elf:     file format elf32-littlenios2
finalProj.elf
architecture: nios2:r1, flags 0x00000112:
EXEC_P, HAS_SYMS, D_PAGED
start address 0x08000224

Program Header:
    LOAD off    0x00001000 vaddr 0x08000000 paddr 0x08000000 align 2**12
         filesz 0x00000020 memsz 0x00000020 flags r-x
    LOAD off    0x00001020 vaddr 0x08000020 paddr 0x08000020 align 2**12
         filesz 0x000180fc memsz 0x000180fc flags r-x
    LOAD off    0x0001911c vaddr 0x0801811c paddr 0x08019d8c align 2**12
         filesz 0x00001c70 memsz 0x00001c70 flags rw-
    LOAD off    0x0001b9fc vaddr 0x0801b9fc paddr 0x0801b9fc align 2**12
         filesz 0x00000000 memsz 0x00000328 flags rw-

Sections:
Idx Name          Size      VMA       LMA       File off  Algn
  0 .entry        00000020  08000000  08000000  00001000  2**5
                  CONTENTS, ALLOC, LOAD, READONLY, CODE
  1 .exceptions   00000204  08000020  08000020  00001020  2**2
                  CONTENTS, ALLOC, LOAD, READONLY, CODE
  2 .text         000172b8  08000224  08000224  00001224  2**2
                  CONTENTS, ALLOC, LOAD, READONLY, CODE
  3 .rodata       00000c40  080174dc  080174dc  000184dc  2**2
                  CONTENTS, ALLOC, LOAD, READONLY, DATA
  4 .rwdata       00001c70  0801811c  08019d8c  0001911c  2**2
                  CONTENTS, ALLOC, LOAD, DATA, SMALL_DATA
  5 .bss          00000328  0801b9fc  0801b9fc  0001b9fc  2**2
                  ALLOC, SMALL_DATA
  6 .onchip_memory2_0 00000000  00000000  00000000  0001ad8c  2**0
                  CONTENTS
  7 .sdram        00000000  0801bd24  0801bd24  0001ad8c  2**0
                  CONTENTS
  8 .comment      0000002c  00000000  00000000  0001ad8c  2**0
                  CONTENTS, READONLY
  9 .debug_aranges 000013c8  00000000  00000000  0001adb8  2**3
                  CONTENTS, READONLY, DEBUGGING
 10 .debug_info   0005b760  00000000  00000000  0001c180  2**0
                  CONTENTS, READONLY, DEBUGGING
 11 .debug_abbrev 00012d96  00000000  00000000  000778e0  2**0
                  CONTENTS, READONLY, DEBUGGING
 12 .debug_line   0001f83f  00000000  00000000  0008a676  2**0
                  CONTENTS, READONLY, DEBUGGING
 13 .debug_frame  0000358c  00000000  00000000  000a9eb8  2**2
                  CONTENTS, READONLY, DEBUGGING
 14 .debug_str    00005e53  00000000  00000000  000ad444  2**0
                  CONTENTS, READONLY, DEBUGGING
 15 .debug_loc    0002170d  00000000  00000000  000b3297  2**0
                  CONTENTS, READONLY, DEBUGGING
 16 .debug_alt_sim_info 00000040  00000000  00000000  000d49a4  2**2
                  CONTENTS, READONLY, DEBUGGING
 17 .debug_ranges 000022e0  00000000  00000000  000d49e8  2**3
                  CONTENTS, READONLY, DEBUGGING
 18 .thread_model 00000003  00000000  00000000  000db4c3  2**0
                  CONTENTS, READONLY
 19 .cpu          0000000c  00000000  00000000  000db4c6  2**0
                  CONTENTS, READONLY
 20 .qsys         00000001  00000000  00000000  000db4d2  2**0
                  CONTENTS, READONLY
 21 .simulation_enabled 00000001  00000000  00000000  000db4d3  2**0
                  CONTENTS, READONLY
 22 .sysid_hash   00000004  00000000  00000000  000db4d4  2**0
                  CONTENTS, READONLY
 23 .sysid_base   00000004  00000000  00000000  000db4d8  2**0
                  CONTENTS, READONLY
 24 .sysid_time   00000004  00000000  00000000  000db4dc  2**0
                  CONTENTS, READONLY
 25 .stderr_dev   00000009  00000000  00000000  000db4e0  2**0
                  CONTENTS, READONLY
 26 .stdin_dev    00000009  00000000  00000000  000db4e9  2**0
                  CONTENTS, READONLY
 27 .stdout_dev   00000009  00000000  00000000  000db4f2  2**0
                  CONTENTS, READONLY
 28 .sopc_system_name 0000000c  00000000  00000000  000db4fb  2**0
                  CONTENTS, READONLY
 29 .quartus_project_dir 00000039  00000000  00000000  000db507  2**0
                  CONTENTS, READONLY
SYMBOL TABLE:
08000000 l    d  .entry	00000000 .entry
08000020 l    d  .exceptions	00000000 .exceptions
08000224 l    d  .text	00000000 .text
080174dc l    d  .rodata	00000000 .rodata
0801811c l    d  .rwdata	00000000 .rwdata
0801b9fc l    d  .bss	00000000 .bss
00000000 l    d  .onchip_memory2_0	00000000 .onchip_memory2_0
0801bd24 l    d  .sdram	00000000 .sdram
00000000 l    d  .comment	00000000 .comment
00000000 l    d  .debug_aranges	00000000 .debug_aranges
00000000 l    d  .debug_info	00000000 .debug_info
00000000 l    d  .debug_abbrev	00000000 .debug_abbrev
00000000 l    d  .debug_line	00000000 .debug_line
00000000 l    d  .debug_frame	00000000 .debug_frame
00000000 l    d  .debug_str	00000000 .debug_str
00000000 l    d  .debug_loc	00000000 .debug_loc
00000000 l    d  .debug_alt_sim_info	00000000 .debug_alt_sim_info
00000000 l    d  .debug_ranges	00000000 .debug_ranges
00000000 l    df *ABS*	00000000 C:\Users\augh\Documents\ECE385\finalProject_multiWaveform\software\finalProj_bsp\obj\HAL\src\crt0.o
0800025c l       .text	00000000 alt_after_alt_main
00000000 l    df *ABS*	00000000 alt_irq_handler.c
00000000 l    df *ABS*	00000000 alt_instruction_exception_entry.c
00000000 l    df *ABS*	00000000 main.c
08019d24 l     O .rwdata	00000001 addr
08019d26 l     O .rwdata	00000004 octUpDnKeys
08019d2c l     O .rwdata	00000008 sampleRate
08019d34 l     O .rwdata	00000004 phasePrecision
00000000 l    df *ABS*	00000000 sgtl5000.c
00000000 l    df *ABS*	00000000 HID.c
00000000 l    df *ABS*	00000000 MAX3421E.c
00000000 l    df *ABS*	00000000 transfer.c
0801ba0c l     O .bss	00000004 usb_delay.3446
0801ba10 l     O .bss	00000001 tmp_addr.3447
00000000 l    df *ABS*	00000000 w_pow.c
00000000 l    df *ABS*	00000000 e_pow.c
00000000 l    df *ABS*	00000000 e_sqrt.c
00000000 l    df *ABS*	00000000 s_lib_ver.c
00000000 l    df *ABS*	00000000 s_rint.c
08017a90 l     O .rodata	00000010 TWO52
00000000 l    df *ABS*	00000000 s_scalbn.c
00000000 l    df *ABS*	00000000 libgcc2.c
00000000 l    df *ABS*	00000000 libgcc2.c
00000000 l    df *ABS*	00000000 lib2-divmod.c
00000000 l    df *ABS*	00000000 lib2-mul.c
00000000 l    df *ABS*	00000000 gesf2.c
00000000 l    df *ABS*	00000000 mulsf3.c
00000000 l    df *ABS*	00000000 subsf3.c
00000000 l    df *ABS*	00000000 fixsfsi.c
00000000 l    df *ABS*	00000000 floatunsisf.c
00000000 l    df *ABS*	00000000 adddf3.c
00000000 l    df *ABS*	00000000 divdf3.c
00000000 l    df *ABS*	00000000 eqdf2.c
00000000 l    df *ABS*	00000000 gedf2.c
00000000 l    df *ABS*	00000000 ledf2.c
00000000 l    df *ABS*	00000000 muldf3.c
00000000 l    df *ABS*	00000000 subdf3.c
00000000 l    df *ABS*	00000000 unorddf2.c
00000000 l    df *ABS*	00000000 floatsidf.c
00000000 l    df *ABS*	00000000 floatunsidf.c
00000000 l    df *ABS*	00000000 libgcc2.c
00000000 l    df *ABS*	00000000 libgcc2.c
00000000 l    df *ABS*	00000000 fixdfsi.c
00000000 l    df *ABS*	00000000 libgcc2.c
00000000 l    df *ABS*	00000000 errno.c
00000000 l    df *ABS*	00000000 impure.c
0801814c l     O .rwdata	00000424 impure_data
00000000 l    df *ABS*	00000000 printf.c
00000000 l    df *ABS*	00000000 putchar.c
00000000 l    df *ABS*	00000000 puts.c
00000000 l    df *ABS*	00000000 strlen.c
00000000 l    df *ABS*	00000000 vfprintf.c
0800a800 l     F .text	000000c0 __sbprintf
08017bf8 l     O .rodata	00000010 blanks.5176
08017be8 l     O .rodata	00000010 zeroes.5177
00000000 l    df *ABS*	00000000 wsetup.c
00000000 l    df *ABS*	00000000 dtoa.c
0800aa1c l     F .text	00000220 quorem
00000000 l    df *ABS*	00000000 fflush.c
00000000 l    df *ABS*	00000000 findfp.c
0800c63c l     F .text	00000008 __fp_lock
0800c650 l     F .text	00000168 __sinit.part.0
0800c7b8 l     F .text	00000008 __fp_unlock
00000000 l    df *ABS*	00000000 mallocr.c
00000000 l    df *ABS*	00000000 fvwrite.c
00000000 l    df *ABS*	00000000 fwalk.c
00000000 l    df *ABS*	00000000 localeconv.c
00000000 l    df *ABS*	00000000 makebuf.c
00000000 l    df *ABS*	00000000 mallocr.c
00000000 l    df *ABS*	00000000 memchr.c
00000000 l    df *ABS*	00000000 memcpy.c
00000000 l    df *ABS*	00000000 memmove.c
00000000 l    df *ABS*	00000000 memset.c
00000000 l    df *ABS*	00000000 mprec.c
08017cac l     O .rodata	0000000c p05.3991
00000000 l    df *ABS*	00000000 putc.c
00000000 l    df *ABS*	00000000 mallocr.c
00000000 l    df *ABS*	00000000 sbrkr.c
00000000 l    df *ABS*	00000000 stdio.c
00000000 l    df *ABS*	00000000 vfprintf.c
0800fb5c l     F .text	000000f4 __sprint_r.part.0
08010f98 l     F .text	000000c0 __sbprintf
08017de0 l     O .rodata	00000010 blanks.5153
08017dd0 l     O .rodata	00000010 zeroes.5154
00000000 l    df *ABS*	00000000 wbuf.c
00000000 l    df *ABS*	00000000 writer.c
00000000 l    df *ABS*	00000000 closer.c
00000000 l    df *ABS*	00000000 assert.c
00000000 l    df *ABS*	00000000 mallocr.c
00000000 l    df *ABS*	00000000 fclose.c
00000000 l    df *ABS*	00000000 fiprintf.c
00000000 l    df *ABS*	00000000 fputwc.c
00000000 l    df *ABS*	00000000 fstatr.c
00000000 l    df *ABS*	00000000 int_errno.c
00000000 l    df *ABS*	00000000 isattyr.c
00000000 l    df *ABS*	00000000 locale.c
00000000 l    df *ABS*	00000000 lseekr.c
00000000 l    df *ABS*	00000000 mbtowc_r.c
00000000 l    df *ABS*	00000000 readr.c
00000000 l    df *ABS*	00000000 strcmp.c
00000000 l    df *ABS*	00000000 vfiprintfr_1.c
00000000 l    df *ABS*	00000000 wcrtomb.c
00000000 l    df *ABS*	00000000 wctomb_r.c
00000000 l    df *ABS*	00000000 abort.c
00000000 l    df *ABS*	00000000 ctype_.c
00000000 l    df *ABS*	00000000 signal.c
08011b7c l     F .text	0000004c _init_signal_r.part.0
00000000 l    df *ABS*	00000000 signalr.c
00000000 l    df *ABS*	00000000 libgcc2.c
00000000 l    df *ABS*	00000000 libgcc2.c
00000000 l    df *ABS*	00000000 alt_close.c
08012a74 l     F .text	0000003c alt_get_errno
00000000 l    df *ABS*	00000000 alt_dev.c
08012b8c l     F .text	0000002c alt_dev_null_write
00000000 l    df *ABS*	00000000 alt_errno.c
00000000 l    df *ABS*	00000000 alt_exit.c
00000000 l    df *ABS*	00000000 alt_fstat.c
08012bf0 l     F .text	0000003c alt_get_errno
00000000 l    df *ABS*	00000000 alt_getpid.c
00000000 l    df *ABS*	00000000 alt_isatty.c
08012d08 l     F .text	0000003c alt_get_errno
00000000 l    df *ABS*	00000000 alt_kill.c
08012df4 l     F .text	0000003c alt_get_errno
00000000 l    df *ABS*	00000000 alt_load.c
08012f5c l     F .text	00000068 alt_load_section
00000000 l    df *ABS*	00000000 alt_lseek.c
08013048 l     F .text	0000003c alt_get_errno
00000000 l    df *ABS*	00000000 alt_main.c
00000000 l    df *ABS*	00000000 alt_malloc_lock.c
00000000 l    df *ABS*	00000000 alt_read.c
08013228 l     F .text	0000003c alt_get_errno
00000000 l    df *ABS*	00000000 alt_release_fd.c
00000000 l    df *ABS*	00000000 alt_sbrk.c
08019d74 l     O .rwdata	00000004 heap_end
00000000 l    df *ABS*	00000000 alt_tick.c
00000000 l    df *ABS*	00000000 alt_usleep.c
00000000 l    df *ABS*	00000000 alt_write.c
08013670 l     F .text	0000003c alt_get_errno
00000000 l    df *ABS*	00000000 alt_sys_init.c
080137b0 l     F .text	00000034 alt_dev_reg
08018c8c l     O .rwdata	00000038 i2c_0
08018cc4 l     O .rwdata	00001060 jtag_uart
00000000 l    df *ABS*	00000000 altera_avalon_i2c.c
08013890 l     F .text	00000110 optional_irq_callback
080139f0 l     F .text	000000a0 alt_avalon_i2c_irq
00000000 l    df *ABS*	00000000 altera_avalon_jtag_uart_fd.c
00000000 l    df *ABS*	00000000 altera_avalon_jtag_uart_init.c
080156e0 l     F .text	0000020c altera_avalon_jtag_uart_irq
080158ec l     F .text	000000a0 altera_avalon_jtag_uart_timeout
00000000 l    df *ABS*	00000000 altera_avalon_jtag_uart_ioctl.c
00000000 l    df *ABS*	00000000 altera_avalon_jtag_uart_read.c
00000000 l    df *ABS*	00000000 altera_avalon_jtag_uart_write.c
00000000 l    df *ABS*	00000000 altera_avalon_spi.c
00000000 l    df *ABS*	00000000 altera_avalon_timer_sc.c
0801612c l     F .text	0000007c alt_avalon_timer_sc_irq
00000000 l    df *ABS*	00000000 alt_alarm_start.c
00000000 l    df *ABS*	00000000 alt_busy_sleep.c
00000000 l    df *ABS*	00000000 alt_dcache_flush_all.c
00000000 l    df *ABS*	00000000 alt_dev_llist_insert.c
080164d8 l     F .text	0000003c alt_get_errno
00000000 l    df *ABS*	00000000 alt_do_ctors.c
00000000 l    df *ABS*	00000000 alt_do_dtors.c
00000000 l    df *ABS*	00000000 alt_find_dev.c
00000000 l    df *ABS*	00000000 alt_icache_flush_all.c
00000000 l    df *ABS*	00000000 alt_iic.c
00000000 l    df *ABS*	00000000 alt_iic_isr_register.c
00000000 l    df *ABS*	00000000 alt_io_redirect.c
080169cc l     F .text	000000d4 alt_open_fd
00000000 l    df *ABS*	00000000 alt_irq_vars.c
00000000 l    df *ABS*	00000000 alt_open.c
08016b1c l     F .text	0000003c alt_get_errno
08016b58 l     F .text	000000dc alt_file_locked
00000000 l    df *ABS*	00000000 alt_printf.c
00000000 l    df *ABS*	00000000 alt_putchar.c
00000000 l    df *ABS*	00000000 altera_nios2_gen2_irq.c
00000000 l    df *ABS*	00000000 alt_find_file.c
00000000 l    df *ABS*	00000000 alt_get_fd.c
00000000 l    df *ABS*	00000000 atexit.c
00000000 l    df *ABS*	00000000 exit.c
00000000 l    df *ABS*	00000000 memcmp.c
00000000 l    df *ABS*	00000000 __atexit.c
00000000 l    df *ABS*	00000000 __call_atexit.c
0801ba40 g     O .bss	00000004 alt_instruction_exception_handler
0800856c g     F .text	00000018 putchar
0800f178 g     F .text	00000070 _mprec_log10
0800f254 g     F .text	00000060 __any_on
08011770 g     F .text	00000058 _isatty_r
08017cb8 g     O .rodata	00000028 __mprec_tinytens
08013164 g     F .text	0000007c alt_main
08019d3c g     O .rwdata	00000008 ctrl_xfers
08008584 g     F .text	000000cc _puts_r
0801bc24 g     O .bss	00000100 alt_irq
08011860 g     F .text	00000064 _lseek_r
08002bd8 g     F .text	00000658 USB_Task
08019d8c g       *ABS*	00000000 __flash_rwdata_start
08006ecc g     F .text	00000080 .hidden __eqdf2
0801bd24 g       *ABS*	00000000 __alt_heap_start
08011e30 g     F .text	00000060 _kill_r
0800852c g     F .text	00000038 printf
08011a34 g     F .text	0000006c _wcrtomb_r
08001c84 g     F .text	00000084 kbdPoll
08011bdc g     F .text	00000084 _signal_r
0800faf8 g     F .text	0000005c __sseek
0800c948 g     F .text	00000010 __sinit
08011058 g     F .text	00000148 __swbuf_r
080117c8 g     F .text	00000074 _setlocale_r
0800c7c0 g     F .text	00000078 __sfmoreglue
080140f0 g     F .text	000000a8 alt_avalon_i2c_rx_read
08013204 g     F .text	00000024 __malloc_unlock
08000734 g     F .text	000001e8 GetDriverandReport
08015318 g     F .text	00000044 alt_avalon_i2c_enabled_ints_get
08013e70 g     F .text	00000094 alt_avalon_i2c_master_config_speed_get
0800df60 g     F .text	0000012c memmove
0800c934 g     F .text	00000014 _cleanup
08014b60 g     F .text	0000020c alt_avalon_i2c_master_transmit_using_interrupts
0800e17c g     F .text	000000a4 _Balloc
08005ab8 g     F .text	00000070 .hidden __fixsfsi
08001de8 g     F .text	000000a4 MAXreg_wr
0801811c g     O .rwdata	00000030 ClientDriverTable
08006f4c g     F .text	000000f0 .hidden __gtdf2
08016ff0 g     F .text	00000024 altera_nios2_gen2_irq_init
080084f0 g     F .text	0000000c __errno
08003230 g     F .text	0000002c MSDProbe
08000000 g     F .entry	0000000c __reset
0800d3b4 g     F .text	00000008 __localeconv_l
080026dc g     F .text	000000ec XferCtrlData
08000020 g       *ABS*	00000000 __flash_exceptions_start
0801ba44 g     O .bss	00000010 hid_ep
08011710 g     F .text	00000060 _fstat_r
0801ba20 g     O .bss	00000004 errno
0800fa70 g     F .text	00000008 __seofread
0801ba2c g     O .bss	00000004 alt_argv
08021d24 g       *ABS*	00000000 _gp
08013640 g     F .text	00000030 usleep
0801535c g     F .text	0000004c alt_avalon_i2c_rx_fifo_threshold_get
08001f70 g     F .text	000000a0 MAXreg_rd
08005634 g     F .text	00000484 .hidden __subsf3
08012ce8 g     F .text	00000020 getpid
08014000 g     F .text	00000044 alt_avalon_i2c_is_busy
08018b0c g     O .rwdata	00000180 alt_fd_list
08001bc8 g     F .text	00000038 HID_init
08008564 g     F .text	00000008 _putchar_r
08013da4 g     F .text	000000cc alt_avalon_i2c_master_config_set
08016684 g     F .text	00000090 alt_find_dev
0800de60 g     F .text	00000100 memcpy
0800c644 g     F .text	0000000c _cleanup_r
0800825c g     F .text	000000bc .hidden __floatsidf
08016aa0 g     F .text	0000007c alt_io_redirect
0800703c g     F .text	000000f0 .hidden __ltdf2
080174dc g       *ABS*	00000000 __DTOR_END__
080149a0 g     F .text	000001c0 alt_avalon_i2c_master_transmit
08008650 g     F .text	00000010 puts
080171d4 g     F .text	00000098 alt_exception_cause_generated_bad_addr
0800f0d4 g     F .text	000000a4 __ratio
08010f7c g     F .text	0000001c __vfiprintf_internal
08015ae8 g     F .text	00000220 altera_avalon_jtag_uart_read
080084fc g     F .text	00000030 _printf_r
00000000 g       *ABS*	00000000 __alt_mem_onchip_memory2_0
0800508c g     F .text	00000064 .hidden __udivsi3
08012d44 g     F .text	000000b0 isatty
08011c60 g     F .text	000000c4 _raise_r
08011274 g     F .text	00000064 __assert_func
08017d08 g     O .rodata	000000c8 __mprec_tens
080083fc g     F .text	00000074 .hidden __fixunsdfsi
08013c10 g     F .text	00000098 alt_avalon_i2c_enable
0801ba1c g     O .bss	00000004 __malloc_top_pad
08011e90 g     F .text	00000004 _getpid_r
08015244 g     F .text	0000006c alt_avalon_i2c_int_disable
08019d44 g     O .rwdata	00000001 usb_task_state
0800d3bc g     F .text	0000000c _localeconv_r
0800e5ec g     F .text	00000054 __i2b
0800cda8 g     F .text	000004cc __sfvwrite_r
08011d24 g     F .text	000000b8 __sigtramp_r
0801b9fd g     O .bss	00000001 currentVoiceNum
0800f9c4 g     F .text	00000058 _sbrk_r
08011914 g     F .text	00000064 _read_r
08002344 g     F .text	000000e8 MAX3421E_init
08000998 g     F .text	00000030 setKeycode
080012a8 g     F .text	000000b4 SGTL5000_Reg_Rd
08019d6c g     O .rwdata	00000004 alt_max_fd
080113b0 g     F .text	000000f8 _fclose_r
0800c614 g     F .text	00000028 fflush
0801ba18 g     O .bss	00000004 __malloc_max_sbrked_mem
08014d6c g     F .text	00000210 alt_avalon_i2c_master_receive
08005c20 g     F .text	00000978 .hidden __adddf3
0800ee6c g     F .text	00000104 __b2d
080124b0 g     F .text	000005c4 .hidden __umoddi3
08013084 g     F .text	000000e0 lseek
08019d48 g     O .rwdata	00000004 __fdlib_version
080152b0 g     F .text	00000068 alt_avalon_i2c_int_enable
08019d4c g     O .rwdata	00000004 _global_impure_ptr
0800f460 g     F .text	00000564 _realloc_r
0801bd24 g       *ABS*	00000000 __bss_end
080168e4 g     F .text	000000e8 alt_iic_isr_register
08013538 g     F .text	00000108 alt_tick
08011e94 g     F .text	0000061c .hidden __udivdi3
0801516c g     F .text	00000058 alt_avalon_i2c_int_status_get
08011674 g     F .text	00000024 _fputwc_r
08017ce0 g     O .rodata	00000028 __mprec_bigtens
0800e3a0 g     F .text	00000138 __s2b
08011b64 g     F .text	00000018 abort
08008318 g     F .text	00000090 .hidden __floatunsidf
0800eb8c g     F .text	00000058 __mcmp
0800c968 g     F .text	00000014 __fp_lock_all
08016898 g     F .text	0000004c alt_ic_irq_enabled
08013494 g     F .text	000000a4 alt_alarm_stop
08013a90 g     F .text	00000054 alt_avalon_i2c_register_callback
0801ba3c g     O .bss	00000004 alt_irq_active
08013ae4 g     F .text	000000ec alt_avalon_i2c_init
08003300 g     F .text	0000002c DummyProbe
080000fc g     F .exceptions	000000c8 alt_irq_handler
08018ae4 g     O .rwdata	00000028 alt_dev_null
08001c00 g     F .text	00000084 mousePoll
08004b0c g     F .text	000001dc rint
08002194 g     F .text	00000024 Vbus_power
080164b8 g     F .text	00000020 alt_dcache_flush_all
0800e4d8 g     F .text	00000064 __hi0bits
08008470 g     F .text	00000080 .hidden __fixdfsi
08019d8c g       *ABS*	00000000 __ram_rwdata_end
08019d64 g     O .rwdata	00000008 alt_dev_list
080136ac g     F .text	00000104 write
0800f2b4 g     F .text	000000cc _putc_r
0801442c g     F .text	0000004c alt_avalon_i2c_check_arblost
08005174 g     F .text	000000c4 .hidden __gtsf2
08015208 g     F .text	0000003c alt_avalon_i2c_int_clear
0801811c g       *ABS*	00000000 __ram_rodata_end
0801ba11 g     O .bss	00000001 usb_error
08012c2c g     F .text	000000bc fstat
08012e30 g     F .text	0000012c kill
0800703c g     F .text	000000f0 .hidden __ledf2
08019d80 g     O .rwdata	00000008 alt_avalon_i2c_list
0800e8ec g     F .text	00000118 __pow5mult
0800fc68 g     F .text	00001314 ___vfiprintf_internal_r
080050f0 g     F .text	0000005c .hidden __umodsi3
0801bd24 g       *ABS*	00000000 end
08015620 g     F .text	000000c0 altera_avalon_jtag_uart_init
080001c4 g     F .exceptions	00000060 alt_instruction_exception_entry
08013bd0 g     F .text	00000040 alt_avalon_i2c_open
08002848 g     F .text	00000180 XferDispatchPkt
080174dc g       *ABS*	00000000 __CTOR_LIST__
0c000000 g       *ABS*	00000000 __alt_stack_pointer
080145b4 g     F .text	000000e8 alt_avalon_i2c_master_tx
080161a8 g     F .text	00000084 alt_avalon_timer_sc_init
080083a8 g     F .text	00000054 .hidden __clzsi2
08015d08 g     F .text	00000228 altera_avalon_jtag_uart_write
0800c958 g     F .text	00000004 __sfp_lock_acquire
0800dd8c g     F .text	000000d4 memchr
080086f8 g     F .text	000020ec ___vfprintf_internal_r
08002554 g     F .text	00000034 MaxGpxHandler
0800caac g     F .text	000002fc _free_r
08016d94 g     F .text	0000022c alt_printf
08017f44 g     O .rodata	00000180 _ctype_b
0801183c g     F .text	0000000c __locale_mb_cur_max
080173bc g     F .text	00000120 __call_exitprocs
080139a0 g     F .text	00000050 alt_avalon_i2c_register_optional_irq_handler
08019d54 g     O .rwdata	00000004 __malloc_sbrk_base
08000224 g     F .text	0000003c _start
0801ba34 g     O .bss	00000004 _alt_tick_rate
08002010 g     F .text	000000e8 MAXbytes_rd
08000620 g     F .text	00000070 searchForOct
08014f7c g     F .text	000001f0 alt_avalon_i2c_master_receive_using_interrupts
080153a8 g     F .text	00000064 alt_avalon_i2c_rx_fifo_threshold_set
0800ea04 g     F .text	00000188 __lshift
08015f30 g     F .text	000001fc alt_avalon_spi_command
0801ba38 g     O .bss	00000004 _alt_nticks
08011dec g     F .text	00000018 signal
08013264 g     F .text	00000108 read
08013820 g     F .text	00000070 alt_sys_init
0801bbdc g     O .bss	00000048 devtable
0801732c g     F .text	00000090 __register_exitproc
080017e4 g     F .text	000003e4 HIDKProbe
0801ba54 g     O .bss	00000018 msd_ep
080147d8 g     F .text	000001c8 alt_avalon_i2c_master_tx_rx
0800e640 g     F .text	000002ac __multiply
080037dc g     F .text	000010cc __ieee754_pow
0801598c g     F .text	00000068 altera_avalon_jtag_uart_close
08002b50 g     F .text	00000088 USB_init
08003444 g     F .text	00000398 pow
0800514c g     F .text	00000028 .hidden __mulsi3
0801badc g     O .bss	00000100 bigbuf
0801811c g       *ABS*	00000000 __ram_rwdata_start
080174dc g       *ABS*	00000000 __ram_rodata_start
0801ba6c g     O .bss	00000028 __malloc_current_mallinfo
0801ba08 g     O .bss	00000001 last_usb_task_state
0800ef70 g     F .text	00000164 __d2b
0801ba00 g     O .bss	00000008 dev0ep
08000958 g     F .text	00000040 clearLED
080154bc g     F .text	00000060 altera_avalon_jtag_uart_read_fd
0801711c g     F .text	000000b8 alt_get_fd
08016360 g     F .text	00000158 alt_busy_sleep
0800325c g     F .text	0000003c MSDEventHandler
0801121c g     F .text	00000058 _close_r
080172b4 g     F .text	00000078 memcmp
08014044 g     F .text	000000ac alt_avalon_i2c_rx_read_available
0801557c g     F .text	00000050 altera_avalon_jtag_uart_close_fd
0801bd24 g       *ABS*	00000000 __alt_stack_base
080155cc g     F .text	00000054 altera_avalon_jtag_uart_ioctl_fd
08000260 g     F .text	00000318 initPhaseIncrements
0800a8c0 g     F .text	0000015c __swsetup_r
08006598 g     F .text	00000934 .hidden __divdf3
0800c838 g     F .text	000000fc __sfp
0800f1e8 g     F .text	0000006c __copybits
08018570 g     O .rwdata	00000408 __malloc_av_
0800c964 g     F .text	00000004 __sinit_lock_release
080032c4 g     F .text	0000003c CDCEventHandler
0800712c g     F .text	000007a8 .hidden __muldf3
0800332c g     F .text	0000003c DummyEventHandler
0800fa1c g     F .text	00000054 __sread
08017014 g     F .text	00000108 alt_find_file
08016514 g     F .text	000000a8 alt_dev_llist_insert
080131e0 g     F .text	00000024 __malloc_lock
080133dc g     F .text	000000b8 sbrk
08014478 g     F .text	0000013c alt_avalon_i2c_interrupt_transaction_status
080143e0 g     F .text	0000004c alt_avalon_i2c_check_nack
0800c5b4 g     F .text	00000060 _fflush_r
080112ec g     F .text	000000c4 _calloc_r
0801b9fc g       *ABS*	00000000 __bss_start
080021b8 g     F .text	0000018c MAX_busprobe
0801b9fe g     O .bss	00000002 hid_device
0800e08c g     F .text	000000f0 memset
08000c08 g     F .text	000006a0 main
0800242c g     F .text	0000005c MAX3421E_Task
080143ac g     F .text	00000034 alt_avalon_i2c_master_target_set
0801ba30 g     O .bss	00000004 alt_envp
0801ba14 g     O .bss	00000004 __malloc_max_total_mem
0801551c g     F .text	00000060 altera_avalon_jtag_uart_write_fd
080111a0 g     F .text	00000018 __swbuf
080033c0 g     F .text	00000084 ConvUTF8ToStr
080151c4 g     F .text	00000044 alt_avalon_i2c_int_raw_status_get
0800fb54 g     F .text	00000008 __sclose
0c000000 g       *ABS*	00000000 __alt_heap_limit
080114a8 g     F .text	00000010 fclose
0800ac3c g     F .text	00001750 _dtoa_r
0800d5ac g     F .text	000007e0 _malloc_r
08011b34 g     F .text	00000030 __ascii_wctomb
08019d70 g     O .rwdata	00000004 alt_errno
080114b8 g     F .text	00000020 _fiprintf_r
08011e04 g     F .text	0000001c _init_signal
0800d274 g     F .text	00000098 _fwalk
080118c4 g     F .text	0000000c _mbtowc_r
0800f380 g     F .text	000000e0 putc
08004f98 g     F .text	00000080 .hidden __divsi3
080029c8 g     F .text	00000188 XferInTransfer
08000ad8 g     F .text	00000130 printSignedHex1
0800c990 g     F .text	0000011c _malloc_trim_r
080174dc g       *ABS*	00000000 __CTOR_END__
08005238 g     F .text	000003fc .hidden __mulsf3
08003388 g     F .text	00000038 GetDevtable
08011978 g     F .text	000000b8 strcmp
080174dc g       *ABS*	00000000 __flash_rodata_start
080174dc g       *ABS*	00000000 __DTOR_LIST__
080027c8 g     F .text	00000080 XferCtrlND
0800135c g     F .text	000000a4 SGTL5000_Reg_Wr
08006ecc g     F .text	00000080 .hidden __nedf2
08004f08 g     F .text	00000090 .hidden __fixunsdfdi
080020f8 g     F .text	0000009c MAX3421E_reset
080137e4 g     F .text	0000003c alt_irq_init
0801336c g     F .text	00000070 alt_release_fd
08017aa0 g     O .rodata	00000100 .hidden __clz_tab
0801ba24 g     O .bss	00000004 _PathLocale
0801726c g     F .text	00000014 atexit
08005174 g     F .text	000000c4 .hidden __gesf2
080111b8 g     F .text	00000064 _write_r
08011848 g     F .text	00000018 setlocale
0801ba94 g     O .bss	00000048 phaseIncs
08019d50 g     O .rwdata	00000004 _impure_ptr
0801ba28 g     O .bss	00000004 alt_argc
0800c38c g     F .text	00000228 __sflush_r
08004ce8 g     F .text	000001c0 scalbn
08016620 g     F .text	00000064 _do_dtors
08014374 g     F .text	00000038 alt_avalon_i2c_master_target_get
08014284 g     F .text	000000f0 alt_avalon_i2c_send_address
08001e8c g     F .text	000000e4 MAXbytes_wr
08000020 g       .exceptions	00000000 alt_irq_entry
080118d0 g     F .text	00000044 __ascii_mbtowc
0800ee10 g     F .text	0000005c __ulp
0800c97c g     F .text	00000014 __fp_unlock_all
08019d5c g     O .rwdata	00000008 alt_fs_list
08003298 g     F .text	0000002c CDCProbe
08000020 g       *ABS*	00000000 __ram_exceptions_start
0800d3c8 g     F .text	0000000c localeconv
0800091c g     F .text	0000003c setLED
08000690 g     F .text	000000a4 setOctUpDn
080048a8 g     F .text	00000264 __ieee754_sqrt
08003368 g     F .text	00000020 GetUsbTaskState
0800d3d4 g     F .text	00000098 __swhatbuf_r
08015458 g     F .text	00000064 alt_avalon_i2c_tfr_cmd_fifo_threshold_set
08016734 g     F .text	00000050 alt_ic_isr_register
08013ca8 g     F .text	0000004c alt_avalon_i2c_disable
08017518 g     O .rodata	00000010 devclasses
08019d8c g       *ABS*	00000000 _edata
08001d44 g     F .text	0000003c HIDKEventHandler
0801bd24 g       *ABS*	00000000 _end
08002488 g     F .text	000000cc MaxIntHandler
08011510 g     F .text	00000164 __fputwc
08000224 g       *ABS*	00000000 __ram_exceptions_end
080159f4 g     F .text	000000f4 altera_avalon_jtag_uart_ioctl
08013cf4 g     F .text	000000b0 alt_avalon_i2c_master_config_get
08001d80 g     F .text	00000040 SPI_init
0801680c g     F .text	0000008c alt_ic_irq_disable
0800fa78 g     F .text	00000080 __swrite
08019d58 g     O .rwdata	00000004 __malloc_trim_threshold
08017280 g     F .text	00000034 exit
080114d8 g     F .text	00000038 fiprintf
08011a30 g     F .text	00000004 _vfiprintf_r
0800d30c g     F .text	000000a8 _fwalk_reent
08005b28 g     F .text	000000f8 .hidden __floatunsisf
0800ebe4 g     F .text	0000022c __mdiff
08005018 g     F .text	00000074 .hidden __modsi3
08019d38 g     O .rwdata	00000001 OCTQ
0801b9fc g     O .bss	00000001 currentOctave
0c000000 g       *ABS*	00000000 __alt_data_end
08000020 g     F .exceptions	00000000 alt_exception
0800c95c g     F .text	00000004 __sfp_lock_release
08000000 g       *ABS*	00000000 __alt_mem_sdram
08013f04 g     F .text	000000fc alt_avalon_i2c_master_config_speed_set
08017e40 g     O .rodata	00000101 _ctype_
08014198 g     F .text	000000ec alt_avalon_i2c_cmd_write
08008208 g     F .text	00000054 .hidden __unorddf2
08004ea8 g     F .text	00000060 .hidden __fixunssfsi
08001d08 g     F .text	0000003c HIDMEventHandler
08012bb8 g     F .text	00000038 _exit
0801622c g     F .text	00000134 alt_alarm_start
080009c8 g     F .text	00000110 printSignedHex0
0800d46c g     F .text	00000140 __smakebuf_r
08008660 g     F .text	00000098 strlen
08011bc8 g     F .text	00000014 _init_signal_r
08016c34 g     F .text	00000160 open
08006f4c g     F .text	000000f0 .hidden __gedf2
08016fc0 g     F .text	00000030 alt_putchar
080112d8 g     F .text	00000014 __assert
0800fc50 g     F .text	00000018 __sprint_r
08016714 g     F .text	00000020 alt_icache_flush_all
08019d88 g     O .rwdata	00000004 alt_priority_mask
08016784 g     F .text	00000088 alt_ic_irq_enable
0800a7e4 g     F .text	0000001c __vfprintf_internal
08001400 g     F .text	000003e4 HIDMProbe
08011b28 g     F .text	0000000c _wctomb_r
08001dc0 g     F .text	00000028 SPI_wr
080078d4 g     F .text	00000934 .hidden __subdf3
0800e53c g     F .text	000000b0 __lo0bits
08019d78 g     O .rwdata	00000008 alt_alarm_list
080165bc g     F .text	00000064 _do_ctors
08011e20 g     F .text	00000010 __sigtramp
08011aa0 g     F .text	00000088 wcrtomb
08000578 g     F .text	000000a8 setKeycodeVoice
08012ab0 g     F .text	000000dc close
08018978 g     O .rwdata	0000016c __global_locale
0801540c g     F .text	0000004c alt_avalon_i2c_tfr_cmd_fifo_threshold_get
08012fc4 g     F .text	00000084 alt_load
0801469c g     F .text	0000013c alt_avalon_i2c_master_rx
08011698 g     F .text	00000078 fputwc
08011ddc g     F .text	00000010 raise
0800c960 g     F .text	00000004 __sinit_lock_acquire
08002588 g     F .text	00000154 XferCtrlReq
0800e244 g     F .text	0000015c __multadd
0800e220 g     F .text	00000024 _Bfree



Disassembly of section .entry:

08000000 <__reset>:
 * Jump to the _start entry point in the .text section if reset code
 * is allowed or if optimizing for RTL simulation.
 */
#if defined(ALT_ALLOW_CODE_AT_RESET) || defined(ALT_SIM_OPTIMIZE)
    /* Jump to the _start entry point in the .text section. */
    movhi r1, %hi(_start)
 8000000:	00420034 	movhi	at,2048
    ori r1, r1, %lo(_start)
 8000004:	08408914 	ori	at,at,548
    jmp r1
 8000008:	0800683a 	jmp	at
	...

Disassembly of section .exceptions:

08000020 <alt_exception>:

#else /* ALT_EXCEPTION_STACK disabled */
        /* 
         * Reserve space on normal stack for registers about to be pushed.
         */
        addi  sp, sp, -76
 8000020:	deffed04 	addi	sp,sp,-76
         * documentation for details).
         *
         * Leave a gap in the stack frame at 4(sp) for the muldiv handler to
         * store zero into.
         */
        stw   ra,  0(sp)
 8000024:	dfc00015 	stw	ra,0(sp)
        stw   r1,   8(sp)
 8000028:	d8400215 	stw	at,8(sp)
        stw   r2,  12(sp)
 800002c:	d8800315 	stw	r2,12(sp)
        stw   r3,  16(sp)
 8000030:	d8c00415 	stw	r3,16(sp)
        stw   r4,  20(sp)
 8000034:	d9000515 	stw	r4,20(sp)
        stw   r5,  24(sp)
 8000038:	d9400615 	stw	r5,24(sp)
        stw   r6,  28(sp)
 800003c:	d9800715 	stw	r6,28(sp)
        stw   r7,  32(sp)
 8000040:	d9c00815 	stw	r7,32(sp)
        rdctl r5, estatus   /* Read early to avoid usage stall */
 8000044:	000b307a 	rdctl	r5,estatus
        stw   r8,  36(sp)
 8000048:	da000915 	stw	r8,36(sp)
        stw   r9,  40(sp)
 800004c:	da400a15 	stw	r9,40(sp)
        stw   r10, 44(sp)
 8000050:	da800b15 	stw	r10,44(sp)
        stw   r11, 48(sp)
 8000054:	dac00c15 	stw	r11,48(sp)
        stw   r12, 52(sp)
 8000058:	db000d15 	stw	r12,52(sp)
        stw   r13, 56(sp)
 800005c:	db400e15 	stw	r13,56(sp)
        stw   r14, 60(sp)
 8000060:	db800f15 	stw	r14,60(sp)
        stw   r15, 64(sp)
 8000064:	dbc01015 	stw	r15,64(sp)
        /*
         * ea-4 contains the address of the instruction being executed
         * when the exception occured. For interrupt exceptions, we will
         * will be re-issue the isntruction. Store it in 72(sp)
         */
        stw   r5,  68(sp)  /* estatus */
 8000068:	d9401115 	stw	r5,68(sp)
        addi  r15, ea, -4  /* instruction that caused exception */
 800006c:	ebffff04 	addi	r15,ea,-4
        stw   r15,  72(sp)
 8000070:	dbc01215 	stw	r15,72(sp)
#else
        /*
         * Test to see if the exception was a software exception or caused 
         * by an external interrupt, and vector accordingly.
         */
        rdctl r4, ipending
 8000074:	0009313a 	rdctl	r4,ipending
        andi  r2, r5, 1
 8000078:	2880004c 	andi	r2,r5,1
        beq   r2, zero, .Lnot_irq
 800007c:	10000326 	beq	r2,zero,800008c <alt_exception+0x6c>
        beq   r4, zero, .Lnot_irq
 8000080:	20000226 	beq	r4,zero,800008c <alt_exception+0x6c>
        /*
         * Now that all necessary registers have been preserved, call 
         * alt_irq_handler() to process the interrupts.
         */

        call alt_irq_handler
 8000084:	80000fc0 	call	80000fc <alt_irq_handler>

        .section .exceptions.irqreturn, "xa"

        br    .Lexception_exit
 8000088:	00000706 	br	80000a8 <alt_exception+0x88>
         * upon completion, so we write ea (address of instruction *after*
         * the one where the exception occured) into 72(sp). The actual
         * instruction that caused the exception is written in r2, which these
         * handlers will utilize.
         */
        stw ea, 72(sp) /* EA is PC+4 so will skip over instruction causing exception */
 800008c:	df401215 	stw	ea,72(sp)
.Lunknown_16bit:
        addi.n r4, r4, 2 /* Need PC+2 to skip over instruction causing exception */
        stw r4, 72(sp)

#else /* CDX is not Enabled and all instructions are 32bits */
        ldw r2, -4(ea) /* Instruction value that caused exception */
 8000090:	e8bfff17 	ldw	r2,-4(ea)
         * debugger is present) or go into an infinite loop since the
         * handling behavior is undefined; in that case we will not return here.
         */

        /* Load exception-causing address as first argument (r4) */
        addi   r4, ea, -4
 8000094:	e93fff04 	addi	r4,ea,-4

        /* Call the instruction-exception entry */
        call   alt_instruction_exception_entry
 8000098:	80001c40 	call	80001c4 <alt_instruction_exception_entry>
         * instruction
         *
         * Return code was 0: Skip. The instruction after the exception is
         * already stored in 72(sp).
         */
        bne   r2, r0, .Lexception_exit
 800009c:	1000021e 	bne	r2,zero,80000a8 <alt_exception+0x88>

        /*
         * Otherwise, modify 72(sp) to re-issue the instruction that caused the
         * exception.
         */
        addi  r15, ea, -4  /* instruction that caused exception */
 80000a0:	ebffff04 	addi	r15,ea,-4
        stw   r15,  72(sp)
 80000a4:	dbc01215 	stw	r15,72(sp)
        /* 
         * Restore the saved registers, so that all general purpose registers 
         * have been restored to their state at the time the interrupt occured.
         */

        ldw   r5,  68(sp)
 80000a8:	d9401117 	ldw	r5,68(sp)
        ldw   ea,  72(sp)  /* This becomes the PC once eret is executed */
 80000ac:	df401217 	ldw	ea,72(sp)
        ldw   ra,   0(sp)
 80000b0:	dfc00017 	ldw	ra,0(sp)

        wrctl estatus, r5
 80000b4:	2801707a 	wrctl	estatus,r5

        ldw   r1,   8(sp)
 80000b8:	d8400217 	ldw	at,8(sp)
        ldw   r2,  12(sp)
 80000bc:	d8800317 	ldw	r2,12(sp)
        ldw   r3,  16(sp)
 80000c0:	d8c00417 	ldw	r3,16(sp)
        ldw   r4,  20(sp)
 80000c4:	d9000517 	ldw	r4,20(sp)
        ldw   r5,  24(sp)
 80000c8:	d9400617 	ldw	r5,24(sp)
        ldw   r6,  28(sp)
 80000cc:	d9800717 	ldw	r6,28(sp)
        ldw   r7,  32(sp)
 80000d0:	d9c00817 	ldw	r7,32(sp)

#if defined(ALT_EXCEPTION_STACK) && defined(ALT_STACK_CHECK)
        ldw   et, %gprel(alt_exception_old_stack_limit)(gp)
#endif

        ldw   r8,  36(sp)
 80000d4:	da000917 	ldw	r8,36(sp)
        ldw   r9,  40(sp)
 80000d8:	da400a17 	ldw	r9,40(sp)
        ldw   r10, 44(sp)
 80000dc:	da800b17 	ldw	r10,44(sp)
        ldw   r11, 48(sp)
 80000e0:	dac00c17 	ldw	r11,48(sp)
        ldw   r12, 52(sp)
 80000e4:	db000d17 	ldw	r12,52(sp)
        ldw   r13, 56(sp)
 80000e8:	db400e17 	ldw	r13,56(sp)
        ldw   r14, 60(sp)
 80000ec:	db800f17 	ldw	r14,60(sp)
        ldw   r15, 64(sp)
 80000f0:	dbc01017 	ldw	r15,64(sp)
        stw   et, %gprel(alt_stack_limit_value)(gp)
        stw   zero, %gprel(alt_exception_old_stack_limit)(gp)
#endif /* ALT_STACK_CHECK */
        ldw   sp,  76(sp)
#else /* ALT_EXCEPTION_STACK disabled */
        addi  sp, sp, 76
 80000f4:	dec01304 	addi	sp,sp,76

        /*
         * Return to the interrupted instruction.
         */

        eret
 80000f8:	ef80083a 	eret

080000fc <alt_irq_handler>:
 * instruction is present if the macro ALT_CI_INTERRUPT_VECTOR defined.
 */

void alt_irq_handler (void) __attribute__ ((section (".exceptions")));
void alt_irq_handler (void)
{
 80000fc:	defff904 	addi	sp,sp,-28
 8000100:	dfc00615 	stw	ra,24(sp)
 8000104:	df000515 	stw	fp,20(sp)
 8000108:	df000504 	addi	fp,sp,20
  
  /*
   * Notify the operating system that we are at interrupt level.
   */ 
  
  ALT_OS_INT_ENTER();
 800010c:	0001883a 	nop
#ifndef NIOS2_EIC_PRESENT
static ALT_INLINE alt_u32 ALT_ALWAYS_INLINE alt_irq_pending (void)
{
  alt_u32 active;

  NIOS2_READ_IPENDING (active);
 8000110:	0005313a 	rdctl	r2,ipending
 8000114:	e0bffc15 	stw	r2,-16(fp)

  return active;
 8000118:	e0bffc17 	ldw	r2,-16(fp)
   * Consider the case where the high priority interupt is asserted during
   * the interrupt entry sequence for a lower priority interrupt to see why
   * this is the case.
   */

  active = alt_irq_pending ();
 800011c:	e0bfff15 	stw	r2,-4(fp)

  do
  {
    i = 0;
 8000120:	e03ffd15 	stw	zero,-12(fp)
    mask = 1;
 8000124:	00800044 	movi	r2,1
 8000128:	e0bffe15 	stw	r2,-8(fp)
     * called to clear the interrupt condition.
     */

    do
    {
      if (active & mask)
 800012c:	e0ffff17 	ldw	r3,-4(fp)
 8000130:	e0bffe17 	ldw	r2,-8(fp)
 8000134:	1884703a 	and	r2,r3,r2
 8000138:	10001126 	beq	r2,zero,8000180 <alt_irq_handler+0x84>
      { 
#ifdef ALT_ENHANCED_INTERRUPT_API_PRESENT
        alt_irq[i].handler(alt_irq[i].context); 
 800013c:	e0bffd17 	ldw	r2,-12(fp)
 8000140:	100690fa 	slli	r3,r2,3
 8000144:	008200b4 	movhi	r2,2050
 8000148:	1885883a 	add	r2,r3,r2
 800014c:	10ef0917 	ldw	r3,-17372(r2)
 8000150:	e0bffd17 	ldw	r2,-12(fp)
 8000154:	100890fa 	slli	r4,r2,3
 8000158:	008200b4 	movhi	r2,2050
 800015c:	2085883a 	add	r2,r4,r2
 8000160:	10af0a17 	ldw	r2,-17368(r2)
 8000164:	1009883a 	mov	r4,r2
 8000168:	183ee83a 	callr	r3
#else
        alt_irq[i].handler(alt_irq[i].context, i); 
#endif
        break;
 800016c:	0001883a 	nop
  NIOS2_READ_IPENDING (active);
 8000170:	0005313a 	rdctl	r2,ipending
 8000174:	e0bffb15 	stw	r2,-20(fp)
  return active;
 8000178:	e0bffb17 	ldw	r2,-20(fp)
 800017c:	00000706 	br	800019c <alt_irq_handler+0xa0>
      }
      mask <<= 1;
 8000180:	e0bffe17 	ldw	r2,-8(fp)
 8000184:	1085883a 	add	r2,r2,r2
 8000188:	e0bffe15 	stw	r2,-8(fp)
      i++;
 800018c:	e0bffd17 	ldw	r2,-12(fp)
 8000190:	10800044 	addi	r2,r2,1
 8000194:	e0bffd15 	stw	r2,-12(fp)
      if (active & mask)
 8000198:	003fe406 	br	800012c <alt_irq_handler+0x30>

    } while (1);

    active = alt_irq_pending ();
 800019c:	e0bfff15 	stw	r2,-4(fp)
    
  } while (active);
 80001a0:	e0bfff17 	ldw	r2,-4(fp)
 80001a4:	103fde1e 	bne	r2,zero,8000120 <alt_irq_handler+0x24>

  /*
   * Notify the operating system that interrupt processing is complete.
   */ 

  ALT_OS_INT_EXIT();
 80001a8:	0001883a 	nop
}
 80001ac:	0001883a 	nop
 80001b0:	e037883a 	mov	sp,fp
 80001b4:	dfc00117 	ldw	ra,4(sp)
 80001b8:	df000017 	ldw	fp,0(sp)
 80001bc:	dec00204 	addi	sp,sp,8
 80001c0:	f800283a 	ret

080001c4 <alt_instruction_exception_entry>:
 * that handler if it has been registered. Absent a handler, it will
 * break break or hang as discussed below.
 */
int 
alt_instruction_exception_entry (alt_u32 exception_pc)
{
 80001c4:	defffb04 	addi	sp,sp,-20
 80001c8:	dfc00415 	stw	ra,16(sp)
 80001cc:	df000315 	stw	fp,12(sp)
 80001d0:	df000304 	addi	fp,sp,12
 80001d4:	e13ffd15 	stw	r4,-12(fp)
  cause = ( (cause & NIOS2_EXCEPTION_REG_CAUSE_MASK) >>
              NIOS2_EXCEPTION_REG_CAUSE_OFST );

  NIOS2_READ_BADADDR(badaddr);
#else
  cause = NIOS2_EXCEPTION_CAUSE_NOT_PRESENT;
 80001d8:	00bfffc4 	movi	r2,-1
 80001dc:	e0bfff15 	stw	r2,-4(fp)
  badaddr = 0;
 80001e0:	e03ffe15 	stw	zero,-8(fp)
#endif /* NIOS2_HAS_EXTRA_EXCEPTION_INFO */

  if(alt_instruction_exception_handler) {
 80001e4:	d0a74717 	ldw	r2,-25316(gp)
 80001e8:	10000726 	beq	r2,zero,8000208 <alt_instruction_exception_entry+0x44>
     * Call handler. Its return value indicates whether the exception-causing
     * instruction should be re-issued. The code that called us,
     * alt_eceptions_entry.S, will look at this value and adjust the ea
     * register as necessary
     */
    return alt_instruction_exception_handler(cause, exception_pc, badaddr);
 80001ec:	d0a74717 	ldw	r2,-25316(gp)
 80001f0:	e0ffff17 	ldw	r3,-4(fp)
 80001f4:	e1bffe17 	ldw	r6,-8(fp)
 80001f8:	e17ffd17 	ldw	r5,-12(fp)
 80001fc:	1809883a 	mov	r4,r3
 8000200:	103ee83a 	callr	r2
 8000204:	00000206 	br	8000210 <alt_instruction_exception_entry+0x4c>
   *    (a peripheral which negates its interrupt output before its
   *    interrupt handler has been executed will cause spurious interrupts)
   */
  else {
#ifdef NIOS2_HAS_DEBUG_STUB
    NIOS2_BREAK();
 8000208:	003da03a 	break	0
      ;
#endif /* NIOS2_HAS_DEBUG_STUB */
  }

  /* We should not get here. Remove compiler warning. */
  return NIOS2_EXCEPTION_RETURN_REISSUE_INST;
 800020c:	0005883a 	mov	r2,zero
}
 8000210:	e037883a 	mov	sp,fp
 8000214:	dfc00117 	ldw	ra,4(sp)
 8000218:	df000017 	ldw	fp,0(sp)
 800021c:	dec00204 	addi	sp,sp,8
 8000220:	f800283a 	ret

Disassembly of section .text:

08000224 <_start>:

    /*
     * Now that the caches are initialized, set up the stack pointer and global pointer.
     * The values provided by the linker are assumed to be correctly aligned.
     */
    movhi sp, %hi(__alt_stack_pointer)
 8000224:	06c30034 	movhi	sp,3072
    ori sp, sp, %lo(__alt_stack_pointer)
 8000228:	dec00014 	ori	sp,sp,0
    movhi gp, %hi(_gp)
 800022c:	068200b4 	movhi	gp,2050
    ori gp, gp, %lo(_gp)
 8000230:	d6874914 	ori	gp,gp,7460
 */
#ifndef ALT_SIM_OPTIMIZE
    /* Log that the BSS is about to be cleared. */
    ALT_LOG_PUTS(alt_log_msg_bss)

    movhi r2, %hi(__bss_start)
 8000234:	00820074 	movhi	r2,2049
    ori r2, r2, %lo(__bss_start)
 8000238:	10ae7f14 	ori	r2,r2,47612

    movhi r3, %hi(__bss_end)
 800023c:	00c20074 	movhi	r3,2049
    ori r3, r3, %lo(__bss_end)
 8000240:	18ef4914 	ori	r3,r3,48420

    beq r2, r3, 1f
 8000244:	10c00326 	beq	r2,r3,8000254 <_start+0x30>

0:
    stw zero, (r2)
 8000248:	10000015 	stw	zero,0(r2)
    addi r2, r2, 4
 800024c:	10800104 	addi	r2,r2,4
    bltu r2, r3, 0b
 8000250:	10fffd36 	bltu	r2,r3,8000248 <_start+0x24>
     * section aren't defined until alt_load() has been called).
     */
    mov   et, zero
#endif

    call alt_load
 8000254:	8012fc40 	call	8012fc4 <alt_load>

    /* Log that alt_main is about to be called. */
    ALT_LOG_PUTS(alt_log_msg_alt_main)

    /* Call the C entry point. It should never return. */
    call alt_main
 8000258:	80131640 	call	8013164 <alt_main>

0800025c <alt_after_alt_main>:

    /* Wait in infinite loop in case alt_main does return. */
alt_after_alt_main:
    br alt_after_alt_main
 800025c:	003fff06 	br	800025c <alt_after_alt_main>

08000260 <initPhaseIncrements>:
int8_t currentOctave = 0;
int8_t currentVoiceNum = 0;
BYTE OCTQ = 0x80;


void initPhaseIncrements(){
 8000260:	defff204 	addi	sp,sp,-56
 8000264:	dfc00d15 	stw	ra,52(sp)
 8000268:	df000c15 	stw	fp,48(sp)
 800026c:	dc400b15 	stw	r17,44(sp)
 8000270:	dc000a15 	stw	r16,40(sp)
 8000274:	df000c04 	addi	fp,sp,48
	for (int i = 0; i < 18; i++){
 8000278:	e03ffd15 	stw	zero,-12(fp)
 800027c:	00007206 	br	8000448 <initPhaseIncrements+0x1e8>
		int noteNum = (currentOctave)*12 + i;
 8000280:	d0a73603 	ldbu	r2,-25384(gp)
 8000284:	10c03fcc 	andi	r3,r2,255
 8000288:	18c0201c 	xori	r3,r3,128
 800028c:	18ffe004 	addi	r3,r3,-128
 8000290:	1805883a 	mov	r2,r3
 8000294:	1085883a 	add	r2,r2,r2
 8000298:	10c5883a 	add	r2,r2,r3
 800029c:	100490ba 	slli	r2,r2,2
 80002a0:	1007883a 	mov	r3,r2
 80002a4:	e0bffd17 	ldw	r2,-12(fp)
 80002a8:	10c5883a 	add	r2,r2,r3
 80002ac:	e0bff815 	stw	r2,-32(fp)
		double f = (440.0/sampleRate)*(double)pow(2,((noteNum-69)/12.0))*(double)(pow(2.,phasePrecision-8));
 80002b0:	0005883a 	mov	r2,zero
 80002b4:	00d039b4 	movhi	r3,16614
 80002b8:	18e22004 	addi	r3,r3,-30592
 80002bc:	100d883a 	mov	r6,r2
 80002c0:	180f883a 	mov	r7,r3
 80002c4:	0009883a 	mov	r4,zero
 80002c8:	01501f34 	movhi	r5,16508
 80002cc:	29600004 	addi	r5,r5,-32768
 80002d0:	80065980 	call	8006598 <__divdf3>
 80002d4:	1009883a 	mov	r4,r2
 80002d8:	180b883a 	mov	r5,r3
 80002dc:	2021883a 	mov	r16,r4
 80002e0:	2823883a 	mov	r17,r5
 80002e4:	e0bff817 	ldw	r2,-32(fp)
 80002e8:	10bfeec4 	addi	r2,r2,-69
 80002ec:	1009883a 	mov	r4,r2
 80002f0:	800825c0 	call	800825c <__floatsidf>
 80002f4:	1011883a 	mov	r8,r2
 80002f8:	1813883a 	mov	r9,r3
 80002fc:	000d883a 	mov	r6,zero
 8000300:	01d00a34 	movhi	r7,16424
 8000304:	4009883a 	mov	r4,r8
 8000308:	480b883a 	mov	r5,r9
 800030c:	80065980 	call	8006598 <__divdf3>
 8000310:	1009883a 	mov	r4,r2
 8000314:	180b883a 	mov	r5,r3
 8000318:	2005883a 	mov	r2,r4
 800031c:	2807883a 	mov	r3,r5
 8000320:	100d883a 	mov	r6,r2
 8000324:	180f883a 	mov	r7,r3
 8000328:	0009883a 	mov	r4,zero
 800032c:	01500034 	movhi	r5,16384
 8000330:	80034440 	call	8003444 <pow>
 8000334:	1009883a 	mov	r4,r2
 8000338:	180b883a 	mov	r5,r3
 800033c:	200d883a 	mov	r6,r4
 8000340:	280f883a 	mov	r7,r5
 8000344:	8009883a 	mov	r4,r16
 8000348:	880b883a 	mov	r5,r17
 800034c:	800712c0 	call	800712c <__muldf3>
 8000350:	1009883a 	mov	r4,r2
 8000354:	180b883a 	mov	r5,r3
 8000358:	2021883a 	mov	r16,r4
 800035c:	2823883a 	mov	r17,r5
 8000360:	00800804 	movi	r2,32
 8000364:	10bffe04 	addi	r2,r2,-8
 8000368:	1009883a 	mov	r4,r2
 800036c:	800825c0 	call	800825c <__floatsidf>
 8000370:	1009883a 	mov	r4,r2
 8000374:	180b883a 	mov	r5,r3
 8000378:	200d883a 	mov	r6,r4
 800037c:	280f883a 	mov	r7,r5
 8000380:	0009883a 	mov	r4,zero
 8000384:	01500034 	movhi	r5,16384
 8000388:	80034440 	call	8003444 <pow>
 800038c:	1009883a 	mov	r4,r2
 8000390:	180b883a 	mov	r5,r3
 8000394:	200d883a 	mov	r6,r4
 8000398:	280f883a 	mov	r7,r5
 800039c:	8009883a 	mov	r4,r16
 80003a0:	880b883a 	mov	r5,r17
 80003a4:	800712c0 	call	800712c <__muldf3>
 80003a8:	1009883a 	mov	r4,r2
 80003ac:	180b883a 	mov	r5,r3
 80003b0:	e13ff615 	stw	r4,-40(fp)
 80003b4:	e17ff715 	stw	r5,-36(fp)
		uint64_t phaseIncr = (uint64_t)f;
 80003b8:	e13ff617 	ldw	r4,-40(fp)
 80003bc:	e17ff717 	ldw	r5,-36(fp)
 80003c0:	8004f080 	call	8004f08 <__fixunsdfdi>
 80003c4:	1009883a 	mov	r4,r2
 80003c8:	180b883a 	mov	r5,r3
 80003cc:	e13ff415 	stw	r4,-48(fp)
 80003d0:	e17ff515 	stw	r5,-44(fp)
		DWORD PHASEQ= 0x00000000;
 80003d4:	e03ffc15 	stw	zero,-16(fp)
		DWORD MASK = 0x00000001;
 80003d8:	00800044 	movi	r2,1
 80003dc:	e0bffb15 	stw	r2,-20(fp)

		for (int j = 0; j < 32; j++) {
 80003e0:	e03ffa15 	stw	zero,-24(fp)
 80003e4:	00000c06 	br	8000418 <initPhaseIncrements+0x1b8>
			PHASEQ += phaseIncr & MASK;
 80003e8:	e0fff417 	ldw	r3,-48(fp)
 80003ec:	e0bffb17 	ldw	r2,-20(fp)
 80003f0:	1884703a 	and	r2,r3,r2
 80003f4:	e0fffc17 	ldw	r3,-16(fp)
 80003f8:	1885883a 	add	r2,r3,r2
 80003fc:	e0bffc15 	stw	r2,-16(fp)
			MASK <<= 1;
 8000400:	e0bffb17 	ldw	r2,-20(fp)
 8000404:	1085883a 	add	r2,r2,r2
 8000408:	e0bffb15 	stw	r2,-20(fp)
		for (int j = 0; j < 32; j++) {
 800040c:	e0bffa17 	ldw	r2,-24(fp)
 8000410:	10800044 	addi	r2,r2,1
 8000414:	e0bffa15 	stw	r2,-24(fp)
 8000418:	e0bffa17 	ldw	r2,-24(fp)
 800041c:	10800810 	cmplti	r2,r2,32
 8000420:	103ff11e 	bne	r2,zero,80003e8 <initPhaseIncrements+0x188>
		}

		phaseIncs[i] = PHASEQ;
 8000424:	e0bffd17 	ldw	r2,-12(fp)
 8000428:	100890ba 	slli	r4,r2,2
 800042c:	e0fffc17 	ldw	r3,-16(fp)
 8000430:	008200b4 	movhi	r2,2050
 8000434:	2085883a 	add	r2,r4,r2
 8000438:	10eea515 	stw	r3,-17772(r2)
	for (int i = 0; i < 18; i++){
 800043c:	e0bffd17 	ldw	r2,-12(fp)
 8000440:	10800044 	addi	r2,r2,1
 8000444:	e0bffd15 	stw	r2,-12(fp)
 8000448:	e0bffd17 	ldw	r2,-12(fp)
 800044c:	10800490 	cmplti	r2,r2,18
 8000450:	103f8b1e 	bne	r2,zero,8000280 <initPhaseIncrements+0x20>

	}
	BYTE OCTQ = 0x80;
 8000454:	00bfe004 	movi	r2,-128
 8000458:	e0bff9c5 	stb	r2,-25(fp)
	OCTQ = OCTQ >> currentOctave;
 800045c:	e0fff9c3 	ldbu	r3,-25(fp)
 8000460:	d0a73603 	ldbu	r2,-25384(gp)
 8000464:	10803fcc 	andi	r2,r2,255
 8000468:	1080201c 	xori	r2,r2,128
 800046c:	10bfe004 	addi	r2,r2,-128
 8000470:	1885d83a 	sra	r2,r3,r2
 8000474:	e0bff9c5 	stb	r2,-25(fp)

	IOWR_ALTERA_AVALON_PIO_DATA(PHASE_INCR0_BASE, phaseIncs[0]);
 8000478:	008200b4 	movhi	r2,2050
 800047c:	10aea517 	ldw	r2,-17772(r2)
 8000480:	00808435 	stwio	r2,528(zero)
	IOWR_ALTERA_AVALON_PIO_DATA(PHASE_INCR1_BASE, phaseIncs[1]);
 8000484:	008200b4 	movhi	r2,2050
 8000488:	10aea617 	ldw	r2,-17768(r2)
 800048c:	00808035 	stwio	r2,512(zero)
	IOWR_ALTERA_AVALON_PIO_DATA(PHASE_INCR2_BASE, phaseIncs[2]);
 8000490:	008200b4 	movhi	r2,2050
 8000494:	10aea717 	ldw	r2,-17764(r2)
 8000498:	00807c35 	stwio	r2,496(zero)
	IOWR_ALTERA_AVALON_PIO_DATA(PHASE_INCR3_BASE, phaseIncs[3]);
 800049c:	008200b4 	movhi	r2,2050
 80004a0:	10aea817 	ldw	r2,-17760(r2)
 80004a4:	00807835 	stwio	r2,480(zero)
	IOWR_ALTERA_AVALON_PIO_DATA(PHASE_INCR4_BASE, phaseIncs[4]);
 80004a8:	008200b4 	movhi	r2,2050
 80004ac:	10aea917 	ldw	r2,-17756(r2)
 80004b0:	00807435 	stwio	r2,464(zero)
	IOWR_ALTERA_AVALON_PIO_DATA(PHASE_INCR5_BASE, phaseIncs[5]);
 80004b4:	008200b4 	movhi	r2,2050
 80004b8:	10aeaa17 	ldw	r2,-17752(r2)
 80004bc:	00807035 	stwio	r2,448(zero)
	IOWR_ALTERA_AVALON_PIO_DATA(PHASE_INCR6_BASE, phaseIncs[6]);
 80004c0:	008200b4 	movhi	r2,2050
 80004c4:	10aeab17 	ldw	r2,-17748(r2)
 80004c8:	00806c35 	stwio	r2,432(zero)
	IOWR_ALTERA_AVALON_PIO_DATA(PHASE_INCR7_BASE, phaseIncs[7]);
 80004cc:	008200b4 	movhi	r2,2050
 80004d0:	10aeac17 	ldw	r2,-17744(r2)
 80004d4:	00806835 	stwio	r2,416(zero)
	IOWR_ALTERA_AVALON_PIO_DATA(PHASE_INCR8_BASE, phaseIncs[8]);
 80004d8:	008200b4 	movhi	r2,2050
 80004dc:	10aead17 	ldw	r2,-17740(r2)
 80004e0:	00806435 	stwio	r2,400(zero)
	IOWR_ALTERA_AVALON_PIO_DATA(PHASE_INCR9_BASE, phaseIncs[9]);
 80004e4:	008200b4 	movhi	r2,2050
 80004e8:	10aeae17 	ldw	r2,-17736(r2)
 80004ec:	00806035 	stwio	r2,384(zero)
	IOWR_ALTERA_AVALON_PIO_DATA(PHASE_INCR10_BASE, phaseIncs[10]);
 80004f0:	008200b4 	movhi	r2,2050
 80004f4:	10aeaf17 	ldw	r2,-17732(r2)
 80004f8:	00805c35 	stwio	r2,368(zero)
	IOWR_ALTERA_AVALON_PIO_DATA(PHASE_INCR11_BASE, phaseIncs[11]);
 80004fc:	008200b4 	movhi	r2,2050
 8000500:	10aeb017 	ldw	r2,-17728(r2)
 8000504:	00805835 	stwio	r2,352(zero)
	IOWR_ALTERA_AVALON_PIO_DATA(PHASE_INCR12_BASE, phaseIncs[12]);
 8000508:	008200b4 	movhi	r2,2050
 800050c:	10aeb117 	ldw	r2,-17724(r2)
 8000510:	00805435 	stwio	r2,336(zero)
	IOWR_ALTERA_AVALON_PIO_DATA(PHASE_INCR13_BASE, phaseIncs[13]);
 8000514:	008200b4 	movhi	r2,2050
 8000518:	10aeb217 	ldw	r2,-17720(r2)
 800051c:	00805035 	stwio	r2,320(zero)
	IOWR_ALTERA_AVALON_PIO_DATA(PHASE_INCR14_BASE, phaseIncs[14]);
 8000520:	008200b4 	movhi	r2,2050
 8000524:	10aeb317 	ldw	r2,-17716(r2)
 8000528:	00804c35 	stwio	r2,304(zero)
	IOWR_ALTERA_AVALON_PIO_DATA(PHASE_INCR15_BASE, phaseIncs[15]);
 800052c:	008200b4 	movhi	r2,2050
 8000530:	10aeb417 	ldw	r2,-17712(r2)
 8000534:	00804835 	stwio	r2,288(zero)
	IOWR_ALTERA_AVALON_PIO_DATA(PHASE_INCR16_BASE, phaseIncs[16]);
 8000538:	008200b4 	movhi	r2,2050
 800053c:	10aeb517 	ldw	r2,-17708(r2)
 8000540:	00804435 	stwio	r2,272(zero)
	IOWR_ALTERA_AVALON_PIO_DATA(PHASE_INCR17_BASE, phaseIncs[17]);
 8000544:	008200b4 	movhi	r2,2050
 8000548:	10aeb617 	ldw	r2,-17704(r2)
 800054c:	00804035 	stwio	r2,256(zero)
	IOWR_ALTERA_AVALON_PIO_DATA(OCT_BASE, OCTQ);
 8000550:	e0bff9c3 	ldbu	r2,-25(fp)
 8000554:	00803035 	stwio	r2,192(zero)

	return;
 8000558:	0001883a 	nop
}
 800055c:	e6fffe04 	addi	sp,fp,-8
 8000560:	dfc00317 	ldw	ra,12(sp)
 8000564:	df000217 	ldw	fp,8(sp)
 8000568:	dc400117 	ldw	r17,4(sp)
 800056c:	dc000017 	ldw	r16,0(sp)
 8000570:	dec00404 	addi	sp,sp,16
 8000574:	f800283a 	ret

08000578 <setKeycodeVoice>:

void setKeycodeVoice(WORD keycode, int voiceNum) {
 8000578:	defffd04 	addi	sp,sp,-12
 800057c:	df000215 	stw	fp,8(sp)
 8000580:	df000204 	addi	fp,sp,8
 8000584:	2005883a 	mov	r2,r4
 8000588:	e17ffe15 	stw	r5,-8(fp)
 800058c:	e0bfff0d 	sth	r2,-4(fp)

	switch (voiceNum) {
 8000590:	e0bffe17 	ldw	r2,-8(fp)
 8000594:	108000e0 	cmpeqi	r2,r2,3
 8000598:	1000181e 	bne	r2,zero,80005fc <setKeycodeVoice+0x84>
 800059c:	e0bffe17 	ldw	r2,-8(fp)
 80005a0:	10800108 	cmpgei	r2,r2,4
 80005a4:	1000191e 	bne	r2,zero,800060c <setKeycodeVoice+0x94>
 80005a8:	e0bffe17 	ldw	r2,-8(fp)
 80005ac:	108000a0 	cmpeqi	r2,r2,2
 80005b0:	10000f1e 	bne	r2,zero,80005f0 <setKeycodeVoice+0x78>
 80005b4:	e0bffe17 	ldw	r2,-8(fp)
 80005b8:	108000c8 	cmpgei	r2,r2,3
 80005bc:	1000131e 	bne	r2,zero,800060c <setKeycodeVoice+0x94>
 80005c0:	e0bffe17 	ldw	r2,-8(fp)
 80005c4:	10000426 	beq	r2,zero,80005d8 <setKeycodeVoice+0x60>
 80005c8:	e0bffe17 	ldw	r2,-8(fp)
 80005cc:	10800060 	cmpeqi	r2,r2,1
 80005d0:	1000041e 	bne	r2,zero,80005e4 <setKeycodeVoice+0x6c>
		case 3 :
			IOWR_ALTERA_AVALON_PIO_DATA(KEYCODE3_BASE, keycode);
			break;
		default : ;
	}
	return;
 80005d4:	00000d06 	br	800060c <setKeycodeVoice+0x94>
			IOWR_ALTERA_AVALON_PIO_DATA(KEYCODE_BASE,keycode);
 80005d8:	e0bfff0b 	ldhu	r2,-4(fp)
 80005dc:	0080a035 	stwio	r2,640(zero)
			break;
 80005e0:	00000906 	br	8000608 <setKeycodeVoice+0x90>
			IOWR_ALTERA_AVALON_PIO_DATA(KEYCODE1_BASE, keycode);
 80005e4:	e0bfff0b 	ldhu	r2,-4(fp)
 80005e8:	00803c35 	stwio	r2,240(zero)
			break;
 80005ec:	00000606 	br	8000608 <setKeycodeVoice+0x90>
			IOWR_ALTERA_AVALON_PIO_DATA(KEYCODE2_BASE, keycode);
 80005f0:	e0bfff0b 	ldhu	r2,-4(fp)
 80005f4:	00803835 	stwio	r2,224(zero)
			break;
 80005f8:	00000306 	br	8000608 <setKeycodeVoice+0x90>
			IOWR_ALTERA_AVALON_PIO_DATA(KEYCODE3_BASE, keycode);
 80005fc:	e0bfff0b 	ldhu	r2,-4(fp)
 8000600:	00803435 	stwio	r2,208(zero)
			break;
 8000604:	0001883a 	nop
	return;
 8000608:	0001883a 	nop
 800060c:	0001883a 	nop
}
 8000610:	e037883a 	mov	sp,fp
 8000614:	df000017 	ldw	fp,0(sp)
 8000618:	dec00104 	addi	sp,sp,4
 800061c:	f800283a 	ret

08000620 <searchForOct>:

int searchForOct(WORD keycode) {
 8000620:	defffd04 	addi	sp,sp,-12
 8000624:	df000215 	stw	fp,8(sp)
 8000628:	df000204 	addi	fp,sp,8
 800062c:	2005883a 	mov	r2,r4
 8000630:	e0bffe0d 	sth	r2,-8(fp)
	for (int i = 0; i < 2; i++) {
 8000634:	e03fff15 	stw	zero,-4(fp)
 8000638:	00000d06 	br	8000670 <searchForOct+0x50>
		if (octUpDnKeys[i] == keycode) {return 1;}
 800063c:	e0bfff17 	ldw	r2,-4(fp)
 8000640:	1087883a 	add	r3,r2,r2
 8000644:	d0a00084 	addi	r2,gp,-32766
 8000648:	1885883a 	add	r2,r3,r2
 800064c:	1080000b 	ldhu	r2,0(r2)
 8000650:	e0fffe0b 	ldhu	r3,-8(fp)
 8000654:	10bfffcc 	andi	r2,r2,65535
 8000658:	1880021e 	bne	r3,r2,8000664 <searchForOct+0x44>
 800065c:	00800044 	movi	r2,1
 8000660:	00000706 	br	8000680 <searchForOct+0x60>
	for (int i = 0; i < 2; i++) {
 8000664:	e0bfff17 	ldw	r2,-4(fp)
 8000668:	10800044 	addi	r2,r2,1
 800066c:	e0bfff15 	stw	r2,-4(fp)
 8000670:	e0bfff17 	ldw	r2,-4(fp)
 8000674:	10800090 	cmplti	r2,r2,2
 8000678:	103ff01e 	bne	r2,zero,800063c <searchForOct+0x1c>
	}
	return 0;
 800067c:	0005883a 	mov	r2,zero
}
 8000680:	e037883a 	mov	sp,fp
 8000684:	df000017 	ldw	fp,0(sp)
 8000688:	dec00104 	addi	sp,sp,4
 800068c:	f800283a 	ret

08000690 <setOctUpDn>:

void setOctUpDn(WORD keycode) {
 8000690:	defffd04 	addi	sp,sp,-12
 8000694:	dfc00215 	stw	ra,8(sp)
 8000698:	df000115 	stw	fp,4(sp)
 800069c:	df000104 	addi	fp,sp,4
 80006a0:	2005883a 	mov	r2,r4
 80006a4:	e0bfff0d 	sth	r2,-4(fp)
	switch(keycode) {
 80006a8:	e0bfff0b 	ldhu	r2,-4(fp)
 80006ac:	10c00b60 	cmpeqi	r3,r2,45
 80006b0:	1800031e 	bne	r3,zero,80006c0 <setOctUpDn+0x30>
 80006b4:	10800ba0 	cmpeqi	r2,r2,46
 80006b8:	10000c1e 	bne	r2,zero,80006ec <setOctUpDn+0x5c>
 80006bc:	00001606 	br	8000718 <setOctUpDn+0x88>
		case 45 :
			currentOctave = (currentOctave == 0)? 0 : currentOctave-1;
 80006c0:	d0a73603 	ldbu	r2,-25384(gp)
 80006c4:	10803fcc 	andi	r2,r2,255
 80006c8:	1080201c 	xori	r2,r2,128
 80006cc:	10bfe004 	addi	r2,r2,-128
 80006d0:	10000326 	beq	r2,zero,80006e0 <setOctUpDn+0x50>
 80006d4:	d0a73603 	ldbu	r2,-25384(gp)
 80006d8:	10bfffc4 	addi	r2,r2,-1
 80006dc:	00000106 	br	80006e4 <setOctUpDn+0x54>
 80006e0:	0005883a 	mov	r2,zero
 80006e4:	d0a73605 	stb	r2,-25384(gp)
			break;
 80006e8:	00000b06 	br	8000718 <setOctUpDn+0x88>
		case 46 :
			currentOctave = (currentOctave == 7)? 7 : currentOctave+1;
 80006ec:	d0a73603 	ldbu	r2,-25384(gp)
 80006f0:	10803fcc 	andi	r2,r2,255
 80006f4:	1080201c 	xori	r2,r2,128
 80006f8:	10bfe004 	addi	r2,r2,-128
 80006fc:	108001e0 	cmpeqi	r2,r2,7
 8000700:	1000031e 	bne	r2,zero,8000710 <setOctUpDn+0x80>
 8000704:	d0a73603 	ldbu	r2,-25384(gp)
 8000708:	10800044 	addi	r2,r2,1
 800070c:	00000106 	br	8000714 <setOctUpDn+0x84>
 8000710:	008001c4 	movi	r2,7
 8000714:	d0a73605 	stb	r2,-25384(gp)
	}
	initPhaseIncrements();
 8000718:	80002600 	call	8000260 <initPhaseIncrements>
}
 800071c:	0001883a 	nop
 8000720:	e037883a 	mov	sp,fp
 8000724:	dfc00117 	ldw	ra,4(sp)
 8000728:	df000017 	ldw	fp,0(sp)
 800072c:	dec00204 	addi	sp,sp,8
 8000730:	f800283a 	ret

08000734 <GetDriverandReport>:

BYTE GetDriverandReport() {
 8000734:	defff604 	addi	sp,sp,-40
 8000738:	dfc00915 	stw	ra,36(sp)
 800073c:	df000815 	stw	fp,32(sp)
 8000740:	df000804 	addi	fp,sp,32
	BYTE i;
	BYTE rcode;
	BYTE device = 0xFF;
 8000744:	00bfffc4 	movi	r2,-1
 8000748:	e0bfff85 	stb	r2,-2(fp)
	BYTE tmpbyte;

	DEV_RECORD* tpl_ptr;
	printf("Reached USB_STATE_RUNNING (0x40)\n");
 800074c:	01020074 	movhi	r4,2049
 8000750:	211d4a04 	addi	r4,r4,29992
 8000754:	80086500 	call	8008650 <puts>
	for (i = 1; i < USB_NUMDEVICES; i++) {
 8000758:	00800044 	movi	r2,1
 800075c:	e0bfffc5 	stb	r2,-1(fp)
 8000760:	00001d06 	br	80007d8 <GetDriverandReport+0xa4>
		tpl_ptr = GetDevtable(i);
 8000764:	e0bfffc3 	ldbu	r2,-1(fp)
 8000768:	1009883a 	mov	r4,r2
 800076c:	80033880 	call	8003388 <GetDevtable>
 8000770:	e0bffe15 	stw	r2,-8(fp)
		if (tpl_ptr->epinfo != NULL) {
 8000774:	e0bffe17 	ldw	r2,-8(fp)
 8000778:	10800017 	ldw	r2,0(r2)
 800077c:	10001326 	beq	r2,zero,80007cc <GetDriverandReport+0x98>
			printf("Device: %d", i);
 8000780:	e0bfffc3 	ldbu	r2,-1(fp)
 8000784:	100b883a 	mov	r5,r2
 8000788:	01020074 	movhi	r4,2049
 800078c:	211d5304 	addi	r4,r4,30028
 8000790:	800852c0 	call	800852c <printf>
			printf("%s \n", devclasses[tpl_ptr->devclass]);
 8000794:	e0bffe17 	ldw	r2,-8(fp)
 8000798:	10800103 	ldbu	r2,4(r2)
 800079c:	10803fcc 	andi	r2,r2,255
 80007a0:	100690ba 	slli	r3,r2,2
 80007a4:	00820074 	movhi	r2,2049
 80007a8:	1885883a 	add	r2,r3,r2
 80007ac:	109d4617 	ldw	r2,29976(r2)
 80007b0:	100b883a 	mov	r5,r2
 80007b4:	01020074 	movhi	r4,2049
 80007b8:	211d5604 	addi	r4,r4,30040
 80007bc:	800852c0 	call	800852c <printf>
			device = tpl_ptr->devclass;
 80007c0:	e0bffe17 	ldw	r2,-8(fp)
 80007c4:	10800103 	ldbu	r2,4(r2)
 80007c8:	e0bfff85 	stb	r2,-2(fp)
	for (i = 1; i < USB_NUMDEVICES; i++) {
 80007cc:	e0bfffc3 	ldbu	r2,-1(fp)
 80007d0:	10800044 	addi	r2,r2,1
 80007d4:	e0bfffc5 	stb	r2,-1(fp)
 80007d8:	e0bfffc3 	ldbu	r2,-1(fp)
 80007dc:	10800230 	cmpltui	r2,r2,8
 80007e0:	103fe01e 	bne	r2,zero,8000764 <GetDriverandReport+0x30>
		}
	}
	//Query rate and protocol
	rcode = XferGetIdle(addr, 0, hid_device.interface, 0, &tmpbyte);
 80007e4:	d0a00003 	ldbu	r2,-32768(gp)
 80007e8:	11003fcc 	andi	r4,r2,255
 80007ec:	d0a736c3 	ldbu	r2,-25381(gp)
 80007f0:	10803fcc 	andi	r2,r2,255
 80007f4:	e0fffdc4 	addi	r3,fp,-9
 80007f8:	d8c00415 	stw	r3,16(sp)
 80007fc:	00c00044 	movi	r3,1
 8000800:	d8c00315 	stw	r3,12(sp)
 8000804:	d8800215 	stw	r2,8(sp)
 8000808:	d8000115 	stw	zero,4(sp)
 800080c:	d8000015 	stw	zero,0(sp)
 8000810:	01c00084 	movi	r7,2
 8000814:	01802844 	movi	r6,161
 8000818:	000b883a 	mov	r5,zero
 800081c:	80025880 	call	8002588 <XferCtrlReq>
 8000820:	e0bfff45 	stb	r2,-3(fp)
	if (rcode) {   //error handling
 8000824:	e0bfff43 	ldbu	r2,-3(fp)
 8000828:	10000926 	beq	r2,zero,8000850 <GetDriverandReport+0x11c>
		printf("GetIdle Error. Error code: ");
 800082c:	01020074 	movhi	r4,2049
 8000830:	211d5804 	addi	r4,r4,30048
 8000834:	800852c0 	call	800852c <printf>
		printf("%x \n", rcode);
 8000838:	e0bfff43 	ldbu	r2,-3(fp)
 800083c:	100b883a 	mov	r5,r2
 8000840:	01020074 	movhi	r4,2049
 8000844:	211d5f04 	addi	r4,r4,30076
 8000848:	800852c0 	call	800852c <printf>
 800084c:	00000906 	br	8000874 <GetDriverandReport+0x140>
	} else {
		printf("Update rate: ");
 8000850:	01020074 	movhi	r4,2049
 8000854:	211d6104 	addi	r4,r4,30084
 8000858:	800852c0 	call	800852c <printf>
		printf("%x \n", tmpbyte);
 800085c:	e0bffdc3 	ldbu	r2,-9(fp)
 8000860:	10803fcc 	andi	r2,r2,255
 8000864:	100b883a 	mov	r5,r2
 8000868:	01020074 	movhi	r4,2049
 800086c:	211d5f04 	addi	r4,r4,30076
 8000870:	800852c0 	call	800852c <printf>
	}
	printf("Protocol: ");
 8000874:	01020074 	movhi	r4,2049
 8000878:	211d6504 	addi	r4,r4,30100
 800087c:	800852c0 	call	800852c <printf>
	rcode = XferGetProto(addr, 0, hid_device.interface, &tmpbyte);
 8000880:	d0a00003 	ldbu	r2,-32768(gp)
 8000884:	11003fcc 	andi	r4,r2,255
 8000888:	d0a736c3 	ldbu	r2,-25381(gp)
 800088c:	10803fcc 	andi	r2,r2,255
 8000890:	e0fffdc4 	addi	r3,fp,-9
 8000894:	d8c00415 	stw	r3,16(sp)
 8000898:	00c00044 	movi	r3,1
 800089c:	d8c00315 	stw	r3,12(sp)
 80008a0:	d8800215 	stw	r2,8(sp)
 80008a4:	d8000115 	stw	zero,4(sp)
 80008a8:	d8000015 	stw	zero,0(sp)
 80008ac:	01c000c4 	movi	r7,3
 80008b0:	01802844 	movi	r6,161
 80008b4:	000b883a 	mov	r5,zero
 80008b8:	80025880 	call	8002588 <XferCtrlReq>
 80008bc:	e0bfff45 	stb	r2,-3(fp)
	if (rcode) {   //error handling
 80008c0:	e0bfff43 	ldbu	r2,-3(fp)
 80008c4:	10000926 	beq	r2,zero,80008ec <GetDriverandReport+0x1b8>
		printf("GetProto Error. Error code ");
 80008c8:	01020074 	movhi	r4,2049
 80008cc:	211d6804 	addi	r4,r4,30112
 80008d0:	800852c0 	call	800852c <printf>
		printf("%x \n", rcode);
 80008d4:	e0bfff43 	ldbu	r2,-3(fp)
 80008d8:	100b883a 	mov	r5,r2
 80008dc:	01020074 	movhi	r4,2049
 80008e0:	211d5f04 	addi	r4,r4,30076
 80008e4:	800852c0 	call	800852c <printf>
 80008e8:	00000606 	br	8000904 <GetDriverandReport+0x1d0>
	} else {
		printf("%d \n", tmpbyte);
 80008ec:	e0bffdc3 	ldbu	r2,-9(fp)
 80008f0:	10803fcc 	andi	r2,r2,255
 80008f4:	100b883a 	mov	r5,r2
 80008f8:	01020074 	movhi	r4,2049
 80008fc:	211d6f04 	addi	r4,r4,30140
 8000900:	800852c0 	call	800852c <printf>
	}
	return device;
 8000904:	e0bfff83 	ldbu	r2,-2(fp)
}
 8000908:	e037883a 	mov	sp,fp
 800090c:	dfc00117 	ldw	ra,4(sp)
 8000910:	df000017 	ldw	fp,0(sp)
 8000914:	dec00204 	addi	sp,sp,8
 8000918:	f800283a 	ret

0800091c <setLED>:

void setLED(int LED) {
 800091c:	defffe04 	addi	sp,sp,-8
 8000920:	df000115 	stw	fp,4(sp)
 8000924:	df000104 	addi	fp,sp,4
 8000928:	e13fff15 	stw	r4,-4(fp)
	IOWR_ALTERA_AVALON_PIO_DATA(LEDS_PIO_BASE,
 800092c:	00c08c37 	ldwio	r3,560(zero)
 8000930:	01000044 	movi	r4,1
 8000934:	e0bfff17 	ldw	r2,-4(fp)
 8000938:	2084983a 	sll	r2,r4,r2
 800093c:	1884b03a 	or	r2,r3,r2
 8000940:	00808c35 	stwio	r2,560(zero)
			(IORD_ALTERA_AVALON_PIO_DATA(LEDS_PIO_BASE) | (0x001 << LED)));
}
 8000944:	0001883a 	nop
 8000948:	e037883a 	mov	sp,fp
 800094c:	df000017 	ldw	fp,0(sp)
 8000950:	dec00104 	addi	sp,sp,4
 8000954:	f800283a 	ret

08000958 <clearLED>:

void clearLED(int LED) {
 8000958:	defffe04 	addi	sp,sp,-8
 800095c:	df000115 	stw	fp,4(sp)
 8000960:	df000104 	addi	fp,sp,4
 8000964:	e13fff15 	stw	r4,-4(fp)
	IOWR_ALTERA_AVALON_PIO_DATA(LEDS_PIO_BASE,
 8000968:	00c08c37 	ldwio	r3,560(zero)
 800096c:	01000044 	movi	r4,1
 8000970:	e0bfff17 	ldw	r2,-4(fp)
 8000974:	2084983a 	sll	r2,r4,r2
 8000978:	0084303a 	nor	r2,zero,r2
 800097c:	1884703a 	and	r2,r3,r2
 8000980:	00808c35 	stwio	r2,560(zero)
			(IORD_ALTERA_AVALON_PIO_DATA(LEDS_PIO_BASE) & ~(0x001 << LED)));

}
 8000984:	0001883a 	nop
 8000988:	e037883a 	mov	sp,fp
 800098c:	df000017 	ldw	fp,0(sp)
 8000990:	dec00104 	addi	sp,sp,4
 8000994:	f800283a 	ret

08000998 <setKeycode>:

void setKeycode(WORD keycode) {
 8000998:	defffe04 	addi	sp,sp,-8
 800099c:	df000115 	stw	fp,4(sp)
 80009a0:	df000104 	addi	fp,sp,4
 80009a4:	2005883a 	mov	r2,r4
 80009a8:	e0bfff0d 	sth	r2,-4(fp)
	IOWR_ALTERA_AVALON_PIO_DATA(KEYCODE_BASE, keycode);
 80009ac:	e0bfff0b 	ldhu	r2,-4(fp)
 80009b0:	0080a035 	stwio	r2,640(zero)
}
 80009b4:	0001883a 	nop
 80009b8:	e037883a 	mov	sp,fp
 80009bc:	df000017 	ldw	fp,0(sp)
 80009c0:	dec00104 	addi	sp,sp,4
 80009c4:	f800283a 	ret

080009c8 <printSignedHex0>:

void printSignedHex0(signed char value) {
 80009c8:	defffc04 	addi	sp,sp,-16
 80009cc:	dfc00315 	stw	ra,12(sp)
 80009d0:	df000215 	stw	fp,8(sp)
 80009d4:	df000204 	addi	fp,sp,8
 80009d8:	2005883a 	mov	r2,r4
 80009dc:	e0bffe05 	stb	r2,-8(fp)
	BYTE tens = 0;
 80009e0:	e03fffc5 	stb	zero,-1(fp)
	BYTE ones = 0;
 80009e4:	e03fff85 	stb	zero,-2(fp)
	WORD pio_val = IORD_ALTERA_AVALON_PIO_DATA(HEX_DIGITS_PIO_BASE);
 80009e8:	00809037 	ldwio	r2,576(zero)
 80009ec:	e0bfff0d 	sth	r2,-4(fp)
	if (value < 0) {
 80009f0:	e0bffe07 	ldb	r2,-8(fp)
 80009f4:	1000060e 	bge	r2,zero,8000a10 <printSignedHex0+0x48>
		setLED(11);
 80009f8:	010002c4 	movi	r4,11
 80009fc:	800091c0 	call	800091c <setLED>
		value = -value;
 8000a00:	e0bffe03 	ldbu	r2,-8(fp)
 8000a04:	0085c83a 	sub	r2,zero,r2
 8000a08:	e0bffe05 	stb	r2,-8(fp)
 8000a0c:	00000206 	br	8000a18 <printSignedHex0+0x50>
	} else {
		clearLED(11);
 8000a10:	010002c4 	movi	r4,11
 8000a14:	80009580 	call	8000958 <clearLED>
	}
	//handled hundreds
	if (value / 100)
 8000a18:	e0bffe03 	ldbu	r2,-8(fp)
 8000a1c:	108018c4 	addi	r2,r2,99
 8000a20:	10803fcc 	andi	r2,r2,255
 8000a24:	108031f0 	cmpltui	r2,r2,199
 8000a28:	1000031e 	bne	r2,zero,8000a38 <printSignedHex0+0x70>
		setLED(13);
 8000a2c:	01000344 	movi	r4,13
 8000a30:	800091c0 	call	800091c <setLED>
 8000a34:	00000206 	br	8000a40 <printSignedHex0+0x78>
	else
		clearLED(13);
 8000a38:	01000344 	movi	r4,13
 8000a3c:	80009580 	call	8000958 <clearLED>

	value = value % 100;
 8000a40:	e0bffe07 	ldb	r2,-8(fp)
 8000a44:	01401904 	movi	r5,100
 8000a48:	1009883a 	mov	r4,r2
 8000a4c:	80050180 	call	8005018 <__modsi3>
 8000a50:	e0bffe05 	stb	r2,-8(fp)
	tens = value / 10;
 8000a54:	e0bffe07 	ldb	r2,-8(fp)
 8000a58:	01400284 	movi	r5,10
 8000a5c:	1009883a 	mov	r4,r2
 8000a60:	8004f980 	call	8004f98 <__divsi3>
 8000a64:	e0bfffc5 	stb	r2,-1(fp)
	ones = value % 10;
 8000a68:	e0bffe07 	ldb	r2,-8(fp)
 8000a6c:	01400284 	movi	r5,10
 8000a70:	1009883a 	mov	r4,r2
 8000a74:	80050180 	call	8005018 <__modsi3>
 8000a78:	e0bfff85 	stb	r2,-2(fp)

	pio_val &= 0x00FF;
 8000a7c:	e0bfff0b 	ldhu	r2,-4(fp)
 8000a80:	10803fcc 	andi	r2,r2,255
 8000a84:	e0bfff0d 	sth	r2,-4(fp)
	pio_val |= (tens << 12);
 8000a88:	e0bfffc3 	ldbu	r2,-1(fp)
 8000a8c:	1004933a 	slli	r2,r2,12
 8000a90:	1007883a 	mov	r3,r2
 8000a94:	e0bfff0b 	ldhu	r2,-4(fp)
 8000a98:	1884b03a 	or	r2,r3,r2
 8000a9c:	e0bfff0d 	sth	r2,-4(fp)
	pio_val |= (ones << 8);
 8000aa0:	e0bfff83 	ldbu	r2,-2(fp)
 8000aa4:	1004923a 	slli	r2,r2,8
 8000aa8:	1007883a 	mov	r3,r2
 8000aac:	e0bfff0b 	ldhu	r2,-4(fp)
 8000ab0:	1884b03a 	or	r2,r3,r2
 8000ab4:	e0bfff0d 	sth	r2,-4(fp)

	IOWR_ALTERA_AVALON_PIO_DATA(HEX_DIGITS_PIO_BASE, pio_val);
 8000ab8:	e0bfff0b 	ldhu	r2,-4(fp)
 8000abc:	00809035 	stwio	r2,576(zero)
}
 8000ac0:	0001883a 	nop
 8000ac4:	e037883a 	mov	sp,fp
 8000ac8:	dfc00117 	ldw	ra,4(sp)
 8000acc:	df000017 	ldw	fp,0(sp)
 8000ad0:	dec00204 	addi	sp,sp,8
 8000ad4:	f800283a 	ret

08000ad8 <printSignedHex1>:

void printSignedHex1(signed char value) {
 8000ad8:	defffb04 	addi	sp,sp,-20
 8000adc:	dfc00415 	stw	ra,16(sp)
 8000ae0:	df000315 	stw	fp,12(sp)
 8000ae4:	df000304 	addi	fp,sp,12
 8000ae8:	2005883a 	mov	r2,r4
 8000aec:	e0bffd05 	stb	r2,-12(fp)
	BYTE tens = 0;
 8000af0:	e03fffc5 	stb	zero,-1(fp)
	BYTE ones = 0;
 8000af4:	e03fff85 	stb	zero,-2(fp)
	DWORD pio_val = IORD_ALTERA_AVALON_PIO_DATA(HEX_DIGITS_PIO_BASE);
 8000af8:	00809037 	ldwio	r2,576(zero)
 8000afc:	e0bffe15 	stw	r2,-8(fp)
	if (value < 0) {
 8000b00:	e0bffd07 	ldb	r2,-12(fp)
 8000b04:	1000060e 	bge	r2,zero,8000b20 <printSignedHex1+0x48>
		setLED(10);
 8000b08:	01000284 	movi	r4,10
 8000b0c:	800091c0 	call	800091c <setLED>
		value = -value;
 8000b10:	e0bffd03 	ldbu	r2,-12(fp)
 8000b14:	0085c83a 	sub	r2,zero,r2
 8000b18:	e0bffd05 	stb	r2,-12(fp)
 8000b1c:	00000206 	br	8000b28 <printSignedHex1+0x50>
	} else {
		clearLED(10);
 8000b20:	01000284 	movi	r4,10
 8000b24:	80009580 	call	8000958 <clearLED>
	}
	//handled hundreds
	if (value / 100)
 8000b28:	e0bffd03 	ldbu	r2,-12(fp)
 8000b2c:	108018c4 	addi	r2,r2,99
 8000b30:	10803fcc 	andi	r2,r2,255
 8000b34:	108031f0 	cmpltui	r2,r2,199
 8000b38:	1000031e 	bne	r2,zero,8000b48 <printSignedHex1+0x70>
		setLED(12);
 8000b3c:	01000304 	movi	r4,12
 8000b40:	800091c0 	call	800091c <setLED>
 8000b44:	00000206 	br	8000b50 <printSignedHex1+0x78>
	else
		clearLED(12);
 8000b48:	01000304 	movi	r4,12
 8000b4c:	80009580 	call	8000958 <clearLED>

	value = value % 100;
 8000b50:	e0bffd07 	ldb	r2,-12(fp)
 8000b54:	01401904 	movi	r5,100
 8000b58:	1009883a 	mov	r4,r2
 8000b5c:	80050180 	call	8005018 <__modsi3>
 8000b60:	e0bffd05 	stb	r2,-12(fp)
	tens = value / 10;
 8000b64:	e0bffd07 	ldb	r2,-12(fp)
 8000b68:	01400284 	movi	r5,10
 8000b6c:	1009883a 	mov	r4,r2
 8000b70:	8004f980 	call	8004f98 <__divsi3>
 8000b74:	e0bfffc5 	stb	r2,-1(fp)
	ones = value % 10;
 8000b78:	e0bffd07 	ldb	r2,-12(fp)
 8000b7c:	01400284 	movi	r5,10
 8000b80:	1009883a 	mov	r4,r2
 8000b84:	80050180 	call	8005018 <__modsi3>
 8000b88:	e0bfff85 	stb	r2,-2(fp)
	tens = value / 10;
 8000b8c:	e0bffd07 	ldb	r2,-12(fp)
 8000b90:	01400284 	movi	r5,10
 8000b94:	1009883a 	mov	r4,r2
 8000b98:	8004f980 	call	8004f98 <__divsi3>
 8000b9c:	e0bfffc5 	stb	r2,-1(fp)
	ones = value % 10;
 8000ba0:	e0bffd07 	ldb	r2,-12(fp)
 8000ba4:	01400284 	movi	r5,10
 8000ba8:	1009883a 	mov	r4,r2
 8000bac:	80050180 	call	8005018 <__modsi3>
 8000bb0:	e0bfff85 	stb	r2,-2(fp)

	pio_val &= 0xFF00;
 8000bb4:	e0bffe17 	ldw	r2,-8(fp)
 8000bb8:	10bfc00c 	andi	r2,r2,65280
 8000bbc:	e0bffe15 	stw	r2,-8(fp)
	pio_val |= (tens << 4);
 8000bc0:	e0bfffc3 	ldbu	r2,-1(fp)
 8000bc4:	1004913a 	slli	r2,r2,4
 8000bc8:	1007883a 	mov	r3,r2
 8000bcc:	e0bffe17 	ldw	r2,-8(fp)
 8000bd0:	10c4b03a 	or	r2,r2,r3
 8000bd4:	e0bffe15 	stw	r2,-8(fp)
	pio_val |= (ones << 0);
 8000bd8:	e0bfff83 	ldbu	r2,-2(fp)
 8000bdc:	e0fffe17 	ldw	r3,-8(fp)
 8000be0:	1884b03a 	or	r2,r3,r2
 8000be4:	e0bffe15 	stw	r2,-8(fp)

	IOWR_ALTERA_AVALON_PIO_DATA(HEX_DIGITS_PIO_BASE, pio_val);
 8000be8:	e0bffe17 	ldw	r2,-8(fp)
 8000bec:	00809035 	stwio	r2,576(zero)
}
 8000bf0:	0001883a 	nop
 8000bf4:	e037883a 	mov	sp,fp
 8000bf8:	dfc00117 	ldw	ra,4(sp)
 8000bfc:	df000017 	ldw	fp,0(sp)
 8000c00:	dec00204 	addi	sp,sp,8
 8000c04:	f800283a 	ret

08000c08 <main>:





int main() {
 8000c08:	defff404 	addi	sp,sp,-48
 8000c0c:	dfc00b15 	stw	ra,44(sp)
 8000c10:	df000a15 	stw	fp,40(sp)
 8000c14:	df000a04 	addi	fp,sp,40

	int voiceIdx = 0;
 8000c18:	e03ffd15 	stw	zero,-12(fp)
	ALT_AVALON_I2C_DEV_t *i2c_dev; //pointer to instance structure
	//get a pointer to the Avalon i2c instance
	i2c_dev = alt_avalon_i2c_open("/dev/i2c_0"); //this has to reflect Platform Designer name
 8000c1c:	01020074 	movhi	r4,2049
 8000c20:	211d7104 	addi	r4,r4,30148
 8000c24:	8013bd00 	call	8013bd0 <alt_avalon_i2c_open>
 8000c28:	e0bffc15 	stw	r2,-16(fp)
	if (NULL==i2c_dev)						     //check the BSP if unsure
 8000c2c:	e0bffc17 	ldw	r2,-16(fp)
 8000c30:	1000051e 	bne	r2,zero,8000c48 <main+0x40>
	{
		printf("Error: Cannot find /dev/i2c_0\n");
 8000c34:	01020074 	movhi	r4,2049
 8000c38:	211d7404 	addi	r4,r4,30160
 8000c3c:	80086500 	call	8008650 <puts>
		return 1;
 8000c40:	00800044 	movi	r2,1
 8000c44:	00019306 	br	8001294 <main+0x68c>
	}
	printf ("I2C Test Program\n");
 8000c48:	01020074 	movhi	r4,2049
 8000c4c:	211d7c04 	addi	r4,r4,30192
 8000c50:	80086500 	call	8008650 <puts>

	alt_avalon_i2c_master_target_set(i2c_dev,0xA); //CODEC at address 0b0001010
 8000c54:	01400284 	movi	r5,10
 8000c58:	e13ffc17 	ldw	r4,-16(fp)
 8000c5c:	80143ac0 	call	80143ac <alt_avalon_i2c_master_target_set>
	//print device ID (verify I2C is working)
	printf( "Device ID register: %x\n", SGTL5000_Reg_Rd (i2c_dev, SGTL5000_CHIP_ID));
 8000c60:	000b883a 	mov	r5,zero
 8000c64:	e13ffc17 	ldw	r4,-16(fp)
 8000c68:	80012a80 	call	80012a8 <SGTL5000_Reg_Rd>
 8000c6c:	10bfffcc 	andi	r2,r2,65535
 8000c70:	100b883a 	mov	r5,r2
 8000c74:	01020074 	movhi	r4,2049
 8000c78:	211d8104 	addi	r4,r4,30212
 8000c7c:	800852c0 	call	800852c <printf>

	//configure PLL, input frequency is 12.5 MHz, output frequency is 180.6336 MHz if 44.1kHz is desired
	//or 196.608 MHz else
	BYTE int_divisor = 180633600/12500000;
 8000c80:	00800384 	movi	r2,14
 8000c84:	e0bffbc5 	stb	r2,-17(fp)
	WORD frac_divisor = (WORD)(((180633600.0f/12500000.0f) - (float)int_divisor) * 2048.0f);
 8000c88:	e0bffbc3 	ldbu	r2,-17(fp)
 8000c8c:	1009883a 	mov	r4,r2
 8000c90:	8005b280 	call	8005b28 <__floatunsisf>
 8000c94:	1007883a 	mov	r3,r2
 8000c98:	180b883a 	mov	r5,r3
 8000c9c:	011059f4 	movhi	r4,16743
 8000ca0:	210d8144 	addi	r4,r4,13829
 8000ca4:	80056340 	call	8005634 <__subsf3>
 8000ca8:	1007883a 	mov	r3,r2
 8000cac:	1805883a 	mov	r2,r3
 8000cb0:	01514034 	movhi	r5,17664
 8000cb4:	1009883a 	mov	r4,r2
 8000cb8:	80052380 	call	8005238 <__mulsf3>
 8000cbc:	1007883a 	mov	r3,r2
 8000cc0:	1805883a 	mov	r2,r3
 8000cc4:	1009883a 	mov	r4,r2
 8000cc8:	8004ea80 	call	8004ea8 <__fixunssfsi>
 8000ccc:	e0bffb0d 	sth	r2,-20(fp)
	printf( "Programming PLL with integer divisor: %d, fractional divisor %d\n", int_divisor, frac_divisor);
 8000cd0:	e0bffbc3 	ldbu	r2,-17(fp)
 8000cd4:	e0fffb0b 	ldhu	r3,-20(fp)
 8000cd8:	180d883a 	mov	r6,r3
 8000cdc:	100b883a 	mov	r5,r2
 8000ce0:	01020074 	movhi	r4,2049
 8000ce4:	211d8704 	addi	r4,r4,30236
 8000ce8:	800852c0 	call	800852c <printf>
	SGTL5000_Reg_Wr(i2c_dev, SGTL5000_CHIP_PLL_CTRL, \
				int_divisor << SGTL5000_PLL_INT_DIV_SHIFT|
 8000cec:	e0bffbc3 	ldbu	r2,-17(fp)
 8000cf0:	100492fa 	slli	r2,r2,11
 8000cf4:	1007883a 	mov	r3,r2
 8000cf8:	e0bffb0b 	ldhu	r2,-20(fp)
 8000cfc:	1884b03a 	or	r2,r3,r2
	SGTL5000_Reg_Wr(i2c_dev, SGTL5000_CHIP_PLL_CTRL, \
 8000d00:	10bfffcc 	andi	r2,r2,65535
 8000d04:	100d883a 	mov	r6,r2
 8000d08:	01400c84 	movi	r5,50
 8000d0c:	e13ffc17 	ldw	r4,-16(fp)
 8000d10:	800135c0 	call	800135c <SGTL5000_Reg_Wr>
				frac_divisor << SGTL5000_PLL_FRAC_DIV_SHIFT);
	printf( "CHIP_PLL_CTRL register: %x\n", SGTL5000_Reg_Rd (i2c_dev, SGTL5000_CHIP_PLL_CTRL));
 8000d14:	01400c84 	movi	r5,50
 8000d18:	e13ffc17 	ldw	r4,-16(fp)
 8000d1c:	80012a80 	call	80012a8 <SGTL5000_Reg_Rd>
 8000d20:	10bfffcc 	andi	r2,r2,65535
 8000d24:	100b883a 	mov	r5,r2
 8000d28:	01020074 	movhi	r4,2049
 8000d2c:	211d9804 	addi	r4,r4,30304
 8000d30:	800852c0 	call	800852c <printf>

	//configure power control, disable internal VDDD, VDDIO=3.3V, VDDA=VDDD=1.8V (ext)
	SGTL5000_Reg_Wr(i2c_dev, SGTL5000_CHIP_ANA_POWER, \
 8000d34:	01917f84 	movi	r6,17918
 8000d38:	01400c04 	movi	r5,48
 8000d3c:	e13ffc17 	ldw	r4,-16(fp)
 8000d40:	800135c0 	call	800135c <SGTL5000_Reg_Wr>
			SGTL5000_REFTOP_POWERUP|
			SGTL5000_HP_POWERUP|
			SGTL5000_DAC_POWERUP|
			SGTL5000_CAPLESS_HP_POWERUP|
			SGTL5000_ADC_POWERUP);
	printf( "CHIP_ANA_POWER register: %x\n", SGTL5000_Reg_Rd (i2c_dev, SGTL5000_CHIP_ANA_POWER));
 8000d44:	01400c04 	movi	r5,48
 8000d48:	e13ffc17 	ldw	r4,-16(fp)
 8000d4c:	80012a80 	call	80012a8 <SGTL5000_Reg_Rd>
 8000d50:	10bfffcc 	andi	r2,r2,65535
 8000d54:	100b883a 	mov	r5,r2
 8000d58:	01020074 	movhi	r4,2049
 8000d5c:	211d9f04 	addi	r4,r4,30332
 8000d60:	800852c0 	call	800852c <printf>

	//select internal ground bias to .9V (1.8V/2)
	SGTL5000_Reg_Wr(i2c_dev, SGTL5000_CHIP_REF_CTRL, 0x004E);
 8000d64:	01801384 	movi	r6,78
 8000d68:	01400a04 	movi	r5,40
 8000d6c:	e13ffc17 	ldw	r4,-16(fp)
 8000d70:	800135c0 	call	800135c <SGTL5000_Reg_Wr>
	printf( "CHIP_REF_CTRL register: %x\n", SGTL5000_Reg_Rd (i2c_dev, SGTL5000_CHIP_REF_CTRL));
 8000d74:	01400a04 	movi	r5,40
 8000d78:	e13ffc17 	ldw	r4,-16(fp)
 8000d7c:	80012a80 	call	80012a8 <SGTL5000_Reg_Rd>
 8000d80:	10bfffcc 	andi	r2,r2,65535
 8000d84:	100b883a 	mov	r5,r2
 8000d88:	01020074 	movhi	r4,2049
 8000d8c:	211da704 	addi	r4,r4,30364
 8000d90:	800852c0 	call	800852c <printf>

	//enable core modules
	SGTL5000_Reg_Wr(i2c_dev, SGTL5000_CHIP_DIG_POWER,\
 8000d94:	018018c4 	movi	r6,99
 8000d98:	01400084 	movi	r5,2
 8000d9c:	e13ffc17 	ldw	r4,-16(fp)
 8000da0:	800135c0 	call	800135c <SGTL5000_Reg_Wr>
			SGTL5000_ADC_EN|
			SGTL5000_DAC_EN|
			//SGTL5000_DAP_POWERUP| //disable digital audio processor in CODEC
			SGTL5000_I2S_OUT_POWERUP|
			SGTL5000_I2S_IN_POWERUP);
	printf( "CHIP_DIG_POWER register: %x\n", SGTL5000_Reg_Rd (i2c_dev, SGTL5000_CHIP_DIG_POWER));
 8000da4:	01400084 	movi	r5,2
 8000da8:	e13ffc17 	ldw	r4,-16(fp)
 8000dac:	80012a80 	call	80012a8 <SGTL5000_Reg_Rd>
 8000db0:	10bfffcc 	andi	r2,r2,65535
 8000db4:	100b883a 	mov	r5,r2
 8000db8:	01020074 	movhi	r4,2049
 8000dbc:	211dae04 	addi	r4,r4,30392
 8000dc0:	800852c0 	call	800852c <printf>


	//MCLK is 12.5 MHz, configure clocks to use PLL
	SGTL5000_Reg_Wr(i2c_dev, SGTL5000_CHIP_CLK_CTRL, \
 8000dc4:	018001c4 	movi	r6,7
 8000dc8:	01400104 	movi	r5,4
 8000dcc:	e13ffc17 	ldw	r4,-16(fp)
 8000dd0:	800135c0 	call	800135c <SGTL5000_Reg_Wr>
			SGTL5000_SYS_FS_44_1k << SGTL5000_SYS_FS_SHIFT |
			SGTL5000_MCLK_FREQ_PLL << SGTL5000_MCLK_FREQ_SHIFT);
	printf( "CHIP_CLK_CTRL register: %x\n", SGTL5000_Reg_Rd (i2c_dev, SGTL5000_CHIP_CLK_CTRL));
 8000dd4:	01400104 	movi	r5,4
 8000dd8:	e13ffc17 	ldw	r4,-16(fp)
 8000ddc:	80012a80 	call	80012a8 <SGTL5000_Reg_Rd>
 8000de0:	10bfffcc 	andi	r2,r2,65535
 8000de4:	100b883a 	mov	r5,r2
 8000de8:	01020074 	movhi	r4,2049
 8000dec:	211db604 	addi	r4,r4,30424
 8000df0:	800852c0 	call	800852c <printf>

	//Set as I2S master
	SGTL5000_Reg_Wr(i2c_dev, SGTL5000_CHIP_I2S_CTRL, SGTL5000_I2S_MASTER);
 8000df4:	01802004 	movi	r6,128
 8000df8:	01400184 	movi	r5,6
 8000dfc:	e13ffc17 	ldw	r4,-16(fp)
 8000e00:	800135c0 	call	800135c <SGTL5000_Reg_Wr>
	printf( "CHIP_I2S_CTRL register: %x\n", SGTL5000_Reg_Rd (i2c_dev, SGTL5000_CHIP_I2S_CTRL));
 8000e04:	01400184 	movi	r5,6
 8000e08:	e13ffc17 	ldw	r4,-16(fp)
 8000e0c:	80012a80 	call	80012a8 <SGTL5000_Reg_Rd>
 8000e10:	10bfffcc 	andi	r2,r2,65535
 8000e14:	100b883a 	mov	r5,r2
 8000e18:	01020074 	movhi	r4,2049
 8000e1c:	211dbd04 	addi	r4,r4,30452
 8000e20:	800852c0 	call	800852c <printf>

	//ADC input from Line
	SGTL5000_Reg_Wr(i2c_dev, SGTL5000_CHIP_ANA_CTRL, \
 8000e24:	01800104 	movi	r6,4
 8000e28:	01400904 	movi	r5,36
 8000e2c:	e13ffc17 	ldw	r4,-16(fp)
 8000e30:	800135c0 	call	800135c <SGTL5000_Reg_Wr>
			SGTL5000_ADC_SEL_LINE_IN << SGTL5000_ADC_SEL_SHIFT);
	printf( "CHIP_ANA_CTRL register: %x\n", SGTL5000_Reg_Rd (i2c_dev, SGTL5000_CHIP_ANA_CTRL));
 8000e34:	01400904 	movi	r5,36
 8000e38:	e13ffc17 	ldw	r4,-16(fp)
 8000e3c:	80012a80 	call	80012a8 <SGTL5000_Reg_Rd>
 8000e40:	10bfffcc 	andi	r2,r2,65535
 8000e44:	100b883a 	mov	r5,r2
 8000e48:	01020074 	movhi	r4,2049
 8000e4c:	211dc404 	addi	r4,r4,30480
 8000e50:	800852c0 	call	800852c <printf>

	//ADC -> I2S out, I2S in -> DAC
	SGTL5000_Reg_Wr(i2c_dev, SGTL5000_CHIP_SSS_CTRL, \
 8000e54:	01800404 	movi	r6,16
 8000e58:	01400284 	movi	r5,10
 8000e5c:	e13ffc17 	ldw	r4,-16(fp)
 8000e60:	800135c0 	call	800135c <SGTL5000_Reg_Wr>
			SGTL5000_DAC_SEL_I2S_IN << SGTL5000_DAC_SEL_SHIFT |
			SGTL5000_I2S_OUT_SEL_ADC << SGTL5000_I2S_OUT_SEL_SHIFT);
	printf( "CHIP_SSS_CTRL register: %x\n", SGTL5000_Reg_Rd (i2c_dev, SGTL5000_CHIP_SSS_CTRL));
 8000e64:	01400284 	movi	r5,10
 8000e68:	e13ffc17 	ldw	r4,-16(fp)
 8000e6c:	80012a80 	call	80012a8 <SGTL5000_Reg_Rd>
 8000e70:	10bfffcc 	andi	r2,r2,65535
 8000e74:	100b883a 	mov	r5,r2
 8000e78:	01020074 	movhi	r4,2049
 8000e7c:	211dcb04 	addi	r4,r4,30508
 8000e80:	800852c0 	call	800852c <printf>

	printf( "CHIP_ANA_CTRL register: %x\n", SGTL5000_Reg_Rd (i2c_dev, SGTL5000_CHIP_ANA_CTRL));
 8000e84:	01400904 	movi	r5,36
 8000e88:	e13ffc17 	ldw	r4,-16(fp)
 8000e8c:	80012a80 	call	80012a8 <SGTL5000_Reg_Rd>
 8000e90:	10bfffcc 	andi	r2,r2,65535
 8000e94:	100b883a 	mov	r5,r2
 8000e98:	01020074 	movhi	r4,2049
 8000e9c:	211dc404 	addi	r4,r4,30480
 8000ea0:	800852c0 	call	800852c <printf>

	//ADC -> I2S out, I2S in -> DAC
	SGTL5000_Reg_Wr(i2c_dev, SGTL5000_CHIP_ADCDAC_CTRL, 0x0000);
 8000ea4:	000d883a 	mov	r6,zero
 8000ea8:	01400384 	movi	r5,14
 8000eac:	e13ffc17 	ldw	r4,-16(fp)
 8000eb0:	800135c0 	call	800135c <SGTL5000_Reg_Wr>
	printf( "CHIP_ADCDAC_CTRL register: %x\n", SGTL5000_Reg_Rd (i2c_dev, SGTL5000_CHIP_ADCDAC_CTRL));
 8000eb4:	01400384 	movi	r5,14
 8000eb8:	e13ffc17 	ldw	r4,-16(fp)
 8000ebc:	80012a80 	call	80012a8 <SGTL5000_Reg_Rd>
 8000ec0:	10bfffcc 	andi	r2,r2,65535
 8000ec4:	100b883a 	mov	r5,r2
 8000ec8:	01020074 	movhi	r4,2049
 8000ecc:	211dd204 	addi	r4,r4,30536
 8000ed0:	800852c0 	call	800852c <printf>
	printf( "CHIP_PAD_STRENGTH register: %x\n", SGTL5000_Reg_Rd (i2c_dev, SGTL5000_CHIP_PAD_STRENGTH));
 8000ed4:	01400504 	movi	r5,20
 8000ed8:	e13ffc17 	ldw	r4,-16(fp)
 8000edc:	80012a80 	call	80012a8 <SGTL5000_Reg_Rd>
 8000ee0:	10bfffcc 	andi	r2,r2,65535
 8000ee4:	100b883a 	mov	r5,r2
 8000ee8:	01020074 	movhi	r4,2049
 8000eec:	211dda04 	addi	r4,r4,30568
 8000ef0:	800852c0 	call	800852c <printf>
	BYTE rcode;
	BOOT_MOUSE_REPORT buf;		//USB mouse report
	BOOT_KBD_REPORT kbdbuf;

	BYTE runningdebugflag = 0;//flag to dump out a bunch of information when we first get to USB_STATE_RUNNING
 8000ef4:	e03fffc5 	stb	zero,-1(fp)
	BYTE errorflag = 0; //flag once we get an error device so we don't keep dumping out state info
 8000ef8:	e03fff85 	stb	zero,-2(fp)
	BYTE device;
	WORD keycode;

	initPhaseIncrements();
 8000efc:	80002600 	call	8000260 <initPhaseIncrements>
	WORD initAmp = 0x38;
 8000f00:	00800e04 	movi	r2,56
 8000f04:	e0bffa8d 	sth	r2,-22(fp)
	printf("phase increments initialized\n");
 8000f08:	01020074 	movhi	r4,2049
 8000f0c:	211de204 	addi	r4,r4,30600
 8000f10:	80086500 	call	8008650 <puts>
	printf("initializing MAX3421E...\n");
 8000f14:	01020074 	movhi	r4,2049
 8000f18:	211dea04 	addi	r4,r4,30632
 8000f1c:	80086500 	call	8008650 <puts>
	MAX3421E_init();
 8000f20:	80023440 	call	8002344 <MAX3421E_init>
	printf("initializing USB...\n");
 8000f24:	01020074 	movhi	r4,2049
 8000f28:	211df104 	addi	r4,r4,30660
 8000f2c:	80086500 	call	8008650 <puts>
	USB_init();
 8000f30:	8002b500 	call	8002b50 <USB_init>
	while (1) {
		printf(".");
 8000f34:	01000b84 	movi	r4,46
 8000f38:	800856c0 	call	800856c <putchar>
		MAX3421E_Task();
 8000f3c:	800242c0 	call	800242c <MAX3421E_Task>
		USB_Task();
 8000f40:	8002bd80 	call	8002bd8 <USB_Task>
		//usleep (500000);
		if (GetUsbTaskState() == USB_STATE_RUNNING) {
 8000f44:	80033680 	call	8003368 <GetUsbTaskState>
 8000f48:	10803fcc 	andi	r2,r2,255
 8000f4c:	10801018 	cmpnei	r2,r2,64
 8000f50:	1000ac1e 	bne	r2,zero,8001204 <main+0x5fc>
			if (!runningdebugflag) {
 8000f54:	e0bfffc3 	ldbu	r2,-1(fp)
 8000f58:	1000071e 	bne	r2,zero,8000f78 <main+0x370>
				runningdebugflag = 1;
 8000f5c:	00800044 	movi	r2,1
 8000f60:	e0bfffc5 	stb	r2,-1(fp)
				setLED(9);
 8000f64:	01000244 	movi	r4,9
 8000f68:	800091c0 	call	800091c <setLED>
				device = GetDriverandReport();
 8000f6c:	80007340 	call	8000734 <GetDriverandReport>
 8000f70:	e0bfff45 	stb	r2,-3(fp)
 8000f74:	003fef06 	br	8000f34 <main+0x32c>
			} else if (device == 1) {
 8000f78:	e0bfff43 	ldbu	r2,-3(fp)
 8000f7c:	10800058 	cmpnei	r2,r2,1
 8000f80:	1000441e 	bne	r2,zero,8001094 <main+0x48c>
				//run keyboard debug polling
				rcode = kbdPoll(&kbdbuf);
 8000f84:	e0bff644 	addi	r2,fp,-39
 8000f88:	1009883a 	mov	r4,r2
 8000f8c:	8001c840 	call	8001c84 <kbdPoll>
 8000f90:	e0bffa45 	stb	r2,-23(fp)
				if (rcode == hrNAK) {
 8000f94:	e0bffa43 	ldbu	r2,-23(fp)
 8000f98:	10800118 	cmpnei	r2,r2,4
 8000f9c:	1000b926 	beq	r2,zero,8001284 <main+0x67c>
					continue; //NAK means no new data
				} else if (rcode) {
 8000fa0:	e0bffa43 	ldbu	r2,-23(fp)
 8000fa4:	10000926 	beq	r2,zero,8000fcc <main+0x3c4>
					printf("Rcode: ");
 8000fa8:	01020074 	movhi	r4,2049
 8000fac:	211df604 	addi	r4,r4,30680
 8000fb0:	800852c0 	call	800852c <printf>
					printf("%x \n", rcode);
 8000fb4:	e0bffa43 	ldbu	r2,-23(fp)
 8000fb8:	100b883a 	mov	r5,r2
 8000fbc:	01020074 	movhi	r4,2049
 8000fc0:	211d5f04 	addi	r4,r4,30076
 8000fc4:	800852c0 	call	800852c <printf>
					continue;
 8000fc8:	0000b106 	br	8001290 <main+0x688>
				}
				printf("keycodes: ");
 8000fcc:	01020074 	movhi	r4,2049
 8000fd0:	211df804 	addi	r4,r4,30688
 8000fd4:	800852c0 	call	800852c <printf>
				for (int i = 0; i < 4; i++) {
 8000fd8:	e03ffe15 	stw	zero,-8(fp)
 8000fdc:	00001206 	br	8001028 <main+0x420>
					printf("%x ", kbdbuf.keycode[i]);
 8000fe0:	e0bffe17 	ldw	r2,-8(fp)
 8000fe4:	e085883a 	add	r2,fp,r2
 8000fe8:	10bff6c3 	ldbu	r2,-37(r2)
 8000fec:	10803fcc 	andi	r2,r2,255
 8000ff0:	100b883a 	mov	r5,r2
 8000ff4:	01020074 	movhi	r4,2049
 8000ff8:	211dfb04 	addi	r4,r4,30700
 8000ffc:	800852c0 	call	800852c <printf>
					setKeycodeVoice(kbdbuf.keycode[i],i);
 8001000:	e0bffe17 	ldw	r2,-8(fp)
 8001004:	e085883a 	add	r2,fp,r2
 8001008:	10bff6c3 	ldbu	r2,-37(r2)
 800100c:	10803fcc 	andi	r2,r2,255
 8001010:	e17ffe17 	ldw	r5,-8(fp)
 8001014:	1009883a 	mov	r4,r2
 8001018:	80005780 	call	8000578 <setKeycodeVoice>
				for (int i = 0; i < 4; i++) {
 800101c:	e0bffe17 	ldw	r2,-8(fp)
 8001020:	10800044 	addi	r2,r2,1
 8001024:	e0bffe15 	stw	r2,-8(fp)
 8001028:	e0bffe17 	ldw	r2,-8(fp)
 800102c:	10800110 	cmplti	r2,r2,4
 8001030:	103feb1e 	bne	r2,zero,8000fe0 <main+0x3d8>
				}
				if (searchForOct(kbdbuf.keycode[0])) {
 8001034:	e0bff6c3 	ldbu	r2,-37(fp)
 8001038:	10803fcc 	andi	r2,r2,255
 800103c:	1009883a 	mov	r4,r2
 8001040:	80006200 	call	8000620 <searchForOct>
 8001044:	10000426 	beq	r2,zero,8001058 <main+0x450>
					setOctUpDn(kbdbuf.keycode[0]);
 8001048:	e0bff6c3 	ldbu	r2,-37(fp)
 800104c:	10803fcc 	andi	r2,r2,255
 8001050:	1009883a 	mov	r4,r2
 8001054:	80006900 	call	8000690 <setOctUpDn>
				}

				printSignedHex0(kbdbuf.keycode[0]);
 8001058:	e0bff6c3 	ldbu	r2,-37(fp)
 800105c:	10803fcc 	andi	r2,r2,255
 8001060:	1080201c 	xori	r2,r2,128
 8001064:	10bfe004 	addi	r2,r2,-128
 8001068:	1009883a 	mov	r4,r2
 800106c:	80009c80 	call	80009c8 <printSignedHex0>
				printSignedHex1(kbdbuf.keycode[1]);
 8001070:	e0bff703 	ldbu	r2,-36(fp)
 8001074:	10803fcc 	andi	r2,r2,255
 8001078:	1080201c 	xori	r2,r2,128
 800107c:	10bfe004 	addi	r2,r2,-128
 8001080:	1009883a 	mov	r4,r2
 8001084:	8000ad80 	call	8000ad8 <printSignedHex1>
				printf("\n");
 8001088:	01000284 	movi	r4,10
 800108c:	800856c0 	call	800856c <putchar>
 8001090:	003fa806 	br	8000f34 <main+0x32c>
			}

			else if (device == 2) {
 8001094:	e0bfff43 	ldbu	r2,-3(fp)
 8001098:	10800098 	cmpnei	r2,r2,2
 800109c:	103fa51e 	bne	r2,zero,8000f34 <main+0x32c>
				rcode = mousePoll(&buf);
 80010a0:	e0bff844 	addi	r2,fp,-31
 80010a4:	1009883a 	mov	r4,r2
 80010a8:	8001c000 	call	8001c00 <mousePoll>
 80010ac:	e0bffa45 	stb	r2,-23(fp)
				if (rcode == hrNAK) {
 80010b0:	e0bffa43 	ldbu	r2,-23(fp)
 80010b4:	10800118 	cmpnei	r2,r2,4
 80010b8:	10007426 	beq	r2,zero,800128c <main+0x684>
					//NAK means no new data
					continue;
				} else if (rcode) {
 80010bc:	e0bffa43 	ldbu	r2,-23(fp)
 80010c0:	10000926 	beq	r2,zero,80010e8 <main+0x4e0>
					printf("Rcode: ");
 80010c4:	01020074 	movhi	r4,2049
 80010c8:	211df604 	addi	r4,r4,30680
 80010cc:	800852c0 	call	800852c <printf>
					printf("%x \n", rcode);
 80010d0:	e0bffa43 	ldbu	r2,-23(fp)
 80010d4:	100b883a 	mov	r5,r2
 80010d8:	01020074 	movhi	r4,2049
 80010dc:	211d5f04 	addi	r4,r4,30076
 80010e0:	800852c0 	call	800852c <printf>
					continue;
 80010e4:	00006a06 	br	8001290 <main+0x688>
				}
				printf("X displacement: ");
 80010e8:	01020074 	movhi	r4,2049
 80010ec:	211dfc04 	addi	r4,r4,30704
 80010f0:	800852c0 	call	800852c <printf>
				printf("%d ", (signed char) buf.Xdispl);
 80010f4:	e0bff883 	ldbu	r2,-30(fp)
 80010f8:	10803fcc 	andi	r2,r2,255
 80010fc:	1080201c 	xori	r2,r2,128
 8001100:	10bfe004 	addi	r2,r2,-128
 8001104:	100b883a 	mov	r5,r2
 8001108:	01020074 	movhi	r4,2049
 800110c:	211e0104 	addi	r4,r4,30724
 8001110:	800852c0 	call	800852c <printf>
				printSignedHex0((signed char) buf.Xdispl);
 8001114:	e0bff883 	ldbu	r2,-30(fp)
 8001118:	10803fcc 	andi	r2,r2,255
 800111c:	1080201c 	xori	r2,r2,128
 8001120:	10bfe004 	addi	r2,r2,-128
 8001124:	1009883a 	mov	r4,r2
 8001128:	80009c80 	call	80009c8 <printSignedHex0>
				printf("Y displacement: ");
 800112c:	01020074 	movhi	r4,2049
 8001130:	211e0204 	addi	r4,r4,30728
 8001134:	800852c0 	call	800852c <printf>
				printf("%d ", (signed char) buf.Ydispl);
 8001138:	e0bff8c3 	ldbu	r2,-29(fp)
 800113c:	10803fcc 	andi	r2,r2,255
 8001140:	1080201c 	xori	r2,r2,128
 8001144:	10bfe004 	addi	r2,r2,-128
 8001148:	100b883a 	mov	r5,r2
 800114c:	01020074 	movhi	r4,2049
 8001150:	211e0104 	addi	r4,r4,30724
 8001154:	800852c0 	call	800852c <printf>
				printSignedHex1((signed char) buf.Ydispl);
 8001158:	e0bff8c3 	ldbu	r2,-29(fp)
 800115c:	10803fcc 	andi	r2,r2,255
 8001160:	1080201c 	xori	r2,r2,128
 8001164:	10bfe004 	addi	r2,r2,-128
 8001168:	1009883a 	mov	r4,r2
 800116c:	8000ad80 	call	8000ad8 <printSignedHex1>
				printf("Buttons: ");
 8001170:	01020074 	movhi	r4,2049
 8001174:	211e0704 	addi	r4,r4,30748
 8001178:	800852c0 	call	800852c <printf>
				printf("%x\n", buf.button);
 800117c:	e0bff843 	ldbu	r2,-31(fp)
 8001180:	10803fcc 	andi	r2,r2,255
 8001184:	100b883a 	mov	r5,r2
 8001188:	01020074 	movhi	r4,2049
 800118c:	211e0a04 	addi	r4,r4,30760
 8001190:	800852c0 	call	800852c <printf>
				if (buf.button & 0x04)
 8001194:	e0bff843 	ldbu	r2,-31(fp)
 8001198:	10803fcc 	andi	r2,r2,255
 800119c:	1080010c 	andi	r2,r2,4
 80011a0:	10000326 	beq	r2,zero,80011b0 <main+0x5a8>
					setLED(2);
 80011a4:	01000084 	movi	r4,2
 80011a8:	800091c0 	call	800091c <setLED>
 80011ac:	00000206 	br	80011b8 <main+0x5b0>
				else
					clearLED(2);
 80011b0:	01000084 	movi	r4,2
 80011b4:	80009580 	call	8000958 <clearLED>
				if (buf.button & 0x02)
 80011b8:	e0bff843 	ldbu	r2,-31(fp)
 80011bc:	10803fcc 	andi	r2,r2,255
 80011c0:	1080008c 	andi	r2,r2,2
 80011c4:	10000326 	beq	r2,zero,80011d4 <main+0x5cc>
					setLED(1);
 80011c8:	01000044 	movi	r4,1
 80011cc:	800091c0 	call	800091c <setLED>
 80011d0:	00000206 	br	80011dc <main+0x5d4>
				else
					clearLED(1);
 80011d4:	01000044 	movi	r4,1
 80011d8:	80009580 	call	8000958 <clearLED>
				if (buf.button & 0x01)
 80011dc:	e0bff843 	ldbu	r2,-31(fp)
 80011e0:	10803fcc 	andi	r2,r2,255
 80011e4:	1080004c 	andi	r2,r2,1
 80011e8:	10000326 	beq	r2,zero,80011f8 <main+0x5f0>
					setLED(0);
 80011ec:	0009883a 	mov	r4,zero
 80011f0:	800091c0 	call	800091c <setLED>
 80011f4:	003f4f06 	br	8000f34 <main+0x32c>
				else
					clearLED(0);
 80011f8:	0009883a 	mov	r4,zero
 80011fc:	80009580 	call	8000958 <clearLED>
 8001200:	003f4c06 	br	8000f34 <main+0x32c>
			}
		} else if (GetUsbTaskState() == USB_STATE_ERROR) {
 8001204:	80033680 	call	8003368 <GetUsbTaskState>
 8001208:	10803fcc 	andi	r2,r2,255
 800120c:	10803fd8 	cmpnei	r2,r2,255
 8001210:	10000a1e 	bne	r2,zero,800123c <main+0x634>
			if (!errorflag) {
 8001214:	e0bfff83 	ldbu	r2,-2(fp)
 8001218:	103f461e 	bne	r2,zero,8000f34 <main+0x32c>
				errorflag = 1;
 800121c:	00800044 	movi	r2,1
 8001220:	e0bfff85 	stb	r2,-2(fp)
				clearLED(9);
 8001224:	01000244 	movi	r4,9
 8001228:	80009580 	call	8000958 <clearLED>
				printf("USB Error State\n");
 800122c:	01020074 	movhi	r4,2049
 8001230:	211e0b04 	addi	r4,r4,30764
 8001234:	80086500 	call	8008650 <puts>
 8001238:	003f3e06 	br	8000f34 <main+0x32c>
				//print out string descriptor here
			}
		} else //not in USB running state
		{

			printf("USB task state: ");
 800123c:	01020074 	movhi	r4,2049
 8001240:	211e0f04 	addi	r4,r4,30780
 8001244:	800852c0 	call	800852c <printf>
			printf("%x\n", GetUsbTaskState());
 8001248:	80033680 	call	8003368 <GetUsbTaskState>
 800124c:	10803fcc 	andi	r2,r2,255
 8001250:	100b883a 	mov	r5,r2
 8001254:	01020074 	movhi	r4,2049
 8001258:	211e0a04 	addi	r4,r4,30760
 800125c:	800852c0 	call	800852c <printf>
			if (runningdebugflag) {	//previously running, reset USB hardware just to clear out any funky state, HS/FS etc
 8001260:	e0bfffc3 	ldbu	r2,-1(fp)
 8001264:	10000326 	beq	r2,zero,8001274 <main+0x66c>
				runningdebugflag = 0;
 8001268:	e03fffc5 	stb	zero,-1(fp)
				MAX3421E_init();
 800126c:	80023440 	call	8002344 <MAX3421E_init>
				USB_init();
 8001270:	8002b500 	call	8002b50 <USB_init>
			}
			errorflag = 0;
 8001274:	e03fff85 	stb	zero,-2(fp)
			clearLED(9);
 8001278:	01000244 	movi	r4,9
 800127c:	80009580 	call	8000958 <clearLED>
 8001280:	003f2c06 	br	8000f34 <main+0x32c>
					continue; //NAK means no new data
 8001284:	0001883a 	nop
 8001288:	003f2a06 	br	8000f34 <main+0x32c>
					continue;
 800128c:	0001883a 	nop
		printf(".");
 8001290:	003f2806 	br	8000f34 <main+0x32c>
		}

	}
	return 0;
}
 8001294:	e037883a 	mov	sp,fp
 8001298:	dfc00117 	ldw	ra,4(sp)
 800129c:	df000017 	ldw	fp,0(sp)
 80012a0:	dec00204 	addi	sp,sp,8
 80012a4:	f800283a 	ret

080012a8 <SGTL5000_Reg_Rd>:
#include "sgtl5000.h"
#include "altera_avalon_i2c.h"
#include "altera_avalon_i2c_regs.h"

WORD SGTL5000_Reg_Rd (ALT_AVALON_I2C_DEV_t* dev, WORD ADDR)
{
 80012a8:	defff804 	addi	sp,sp,-32
 80012ac:	dfc00715 	stw	ra,28(sp)
 80012b0:	df000615 	stw	fp,24(sp)
 80012b4:	df000604 	addi	fp,sp,24
 80012b8:	e13ffd15 	stw	r4,-12(fp)
 80012bc:	2805883a 	mov	r2,r5
 80012c0:	e0bffc0d 	sth	r2,-16(fp)
	BYTE buffer[2];
	WORD value;
	buffer[0] = (ADDR & 0xFF00) >> 8;
 80012c4:	e0bffc0b 	ldhu	r2,-16(fp)
 80012c8:	1004d23a 	srli	r2,r2,8
 80012cc:	e0bffe05 	stb	r2,-8(fp)
	buffer[1] = (ADDR & 0x00FF);
 80012d0:	e0bffc0b 	ldhu	r2,-16(fp)
 80012d4:	e0bffe45 	stb	r2,-7(fp)

	ALT_AVALON_I2C_STATUS_CODE status=alt_avalon_i2c_master_tx_rx(dev,buffer,2,buffer,2,0);
 80012d8:	e13ffe04 	addi	r4,fp,-8
 80012dc:	e0fffe04 	addi	r3,fp,-8
 80012e0:	d8000115 	stw	zero,4(sp)
 80012e4:	00800084 	movi	r2,2
 80012e8:	d8800015 	stw	r2,0(sp)
 80012ec:	200f883a 	mov	r7,r4
 80012f0:	01800084 	movi	r6,2
 80012f4:	180b883a 	mov	r5,r3
 80012f8:	e13ffd17 	ldw	r4,-12(fp)
 80012fc:	80147d80 	call	80147d8 <alt_avalon_i2c_master_tx_rx>
 8001300:	e0bfff15 	stw	r2,-4(fp)

	if (status != ALT_AVALON_I2C_SUCCESS){
 8001304:	e0bfff17 	ldw	r2,-4(fp)
 8001308:	10000626 	beq	r2,zero,8001324 <SGTL5000_Reg_Rd+0x7c>
		printf ("SGTL5000 I2C error, address: %x", ADDR);
 800130c:	e0bffc0b 	ldhu	r2,-16(fp)
 8001310:	100b883a 	mov	r5,r2
 8001314:	01020074 	movhi	r4,2049
 8001318:	211e1404 	addi	r4,r4,30800
 800131c:	800852c0 	call	800852c <printf>
		while (1)
 8001320:	003fff06 	br	8001320 <SGTL5000_Reg_Rd+0x78>
		{
			//hang here
		}
	}
	value = (buffer[0] << 8) | buffer[1];
 8001324:	e0bffe03 	ldbu	r2,-8(fp)
 8001328:	10803fcc 	andi	r2,r2,255
 800132c:	1004923a 	slli	r2,r2,8
 8001330:	1007883a 	mov	r3,r2
 8001334:	e0bffe43 	ldbu	r2,-7(fp)
 8001338:	10803fcc 	andi	r2,r2,255
 800133c:	1884b03a 	or	r2,r3,r2
 8001340:	e0bffe8d 	sth	r2,-6(fp)
	return value;
 8001344:	e0bffe8b 	ldhu	r2,-6(fp)
}
 8001348:	e037883a 	mov	sp,fp
 800134c:	dfc00117 	ldw	ra,4(sp)
 8001350:	df000017 	ldw	fp,0(sp)
 8001354:	dec00204 	addi	sp,sp,8
 8001358:	f800283a 	ret

0800135c <SGTL5000_Reg_Wr>:

WORD SGTL5000_Reg_Wr (ALT_AVALON_I2C_DEV_t* dev, WORD ADDR, WORD DATA)
{
 800135c:	defff904 	addi	sp,sp,-28
 8001360:	dfc00615 	stw	ra,24(sp)
 8001364:	df000515 	stw	fp,20(sp)
 8001368:	df000504 	addi	fp,sp,20
 800136c:	e13ffd15 	stw	r4,-12(fp)
 8001370:	2805883a 	mov	r2,r5
 8001374:	3007883a 	mov	r3,r6
 8001378:	e0bffc0d 	sth	r2,-16(fp)
 800137c:	1805883a 	mov	r2,r3
 8001380:	e0bffb0d 	sth	r2,-20(fp)
	BYTE buffer[4];
	buffer[0] = (ADDR & 0xFF00) >> 8;
 8001384:	e0bffc0b 	ldhu	r2,-16(fp)
 8001388:	1004d23a 	srli	r2,r2,8
 800138c:	e0bffe05 	stb	r2,-8(fp)
	buffer[1] = (ADDR & 0x00FF);
 8001390:	e0bffc0b 	ldhu	r2,-16(fp)
 8001394:	e0bffe45 	stb	r2,-7(fp)
	buffer[2] = (DATA & 0xFF00) >> 8;
 8001398:	e0bffb0b 	ldhu	r2,-20(fp)
 800139c:	1004d23a 	srli	r2,r2,8
 80013a0:	e0bffe85 	stb	r2,-6(fp)
	buffer[3] = (DATA & 0x00FF);
 80013a4:	e0bffb0b 	ldhu	r2,-20(fp)
 80013a8:	e0bffec5 	stb	r2,-5(fp)


	ALT_AVALON_I2C_STATUS_CODE status=alt_avalon_i2c_master_tx(dev,buffer,4,0);
 80013ac:	e0bffe04 	addi	r2,fp,-8
 80013b0:	000f883a 	mov	r7,zero
 80013b4:	01800104 	movi	r6,4
 80013b8:	100b883a 	mov	r5,r2
 80013bc:	e13ffd17 	ldw	r4,-12(fp)
 80013c0:	80145b40 	call	80145b4 <alt_avalon_i2c_master_tx>
 80013c4:	e0bfff15 	stw	r2,-4(fp)

	if (status != ALT_AVALON_I2C_SUCCESS){
 80013c8:	e0bfff17 	ldw	r2,-4(fp)
 80013cc:	10000626 	beq	r2,zero,80013e8 <SGTL5000_Reg_Wr+0x8c>
		printf ("SGTL5000 I2C error, address: %x", ADDR);
 80013d0:	e0bffc0b 	ldhu	r2,-16(fp)
 80013d4:	100b883a 	mov	r5,r2
 80013d8:	01020074 	movhi	r4,2049
 80013dc:	211e1404 	addi	r4,r4,30800
 80013e0:	800852c0 	call	800852c <printf>
		while (1)
 80013e4:	003fff06 	br	80013e4 <SGTL5000_Reg_Wr+0x88>
		{
			//hang here
		}
	}
	return DATA;
 80013e8:	e0bffb0b 	ldhu	r2,-20(fp)
}
 80013ec:	e037883a 	mov	sp,fp
 80013f0:	dfc00117 	ldw	ra,4(sp)
 80013f4:	df000017 	ldw	fp,0(sp)
 80013f8:	dec00204 	addi	sp,sp,8
 80013fc:	f800283a 	ret

08001400 <HIDMProbe>:
/* HID Mouse probe. Called from USB state machine.                          */
/* assumes configuration length is less than 256 bytes                      */
/* looks for Class:03, Subclass: 01, Protocol: 02 in interface descriptor   */
/* sets mouse in boot protocol                                              */
/* assumes single configuration and interface configuration 0               */
BOOL HIDMProbe(BYTE addr, DWORD flags) {
 8001400:	defff204 	addi	sp,sp,-56
 8001404:	dfc00d15 	stw	ra,52(sp)
 8001408:	df000c15 	stw	fp,48(sp)
 800140c:	df000c04 	addi	fp,sp,48
 8001410:	2005883a 	mov	r2,r4
 8001414:	e17ff915 	stw	r5,-28(fp)
 8001418:	e0bffa05 	stb	r2,-24(fp)
	BYTE tmpbyte;
	BYTE rcode;
	BYTE confvalue;
	WORD total_length;
	USB_DESCR* data_ptr = (USB_DESCR *) &bigbuf;
 800141c:	008200b4 	movhi	r2,2050
 8001420:	10aeb704 	addi	r2,r2,-17700
 8001424:	e0bffe15 	stw	r2,-8(fp)
	BYTE* byte_ptr = bigbuf;
 8001428:	008200b4 	movhi	r2,2050
 800142c:	10aeb704 	addi	r2,r2,-17700
 8001430:	e0bffd15 	stw	r2,-12(fp)
	rcode = XferGetConfDescr(addr, 0, CONF_DESCR_LEN, 0, bigbuf); //get configuration descriptor
 8001434:	e0fffa03 	ldbu	r3,-24(fp)
 8001438:	008200b4 	movhi	r2,2050
 800143c:	10aeb704 	addi	r2,r2,-17700
 8001440:	d8800415 	stw	r2,16(sp)
 8001444:	00800244 	movi	r2,9
 8001448:	d8800315 	stw	r2,12(sp)
 800144c:	d8000215 	stw	zero,8(sp)
 8001450:	00800084 	movi	r2,2
 8001454:	d8800115 	stw	r2,4(sp)
 8001458:	d8000015 	stw	zero,0(sp)
 800145c:	01c00184 	movi	r7,6
 8001460:	01802004 	movi	r6,128
 8001464:	000b883a 	mov	r5,zero
 8001468:	1809883a 	mov	r4,r3
 800146c:	80025880 	call	8002588 <XferCtrlReq>
 8001470:	e0bffcc5 	stb	r2,-13(fp)
	if (rcode) {   //error handling
 8001474:	e0bffcc3 	ldbu	r2,-13(fp)
 8001478:	10000226 	beq	r2,zero,8001484 <HIDMProbe+0x84>
		//printf("unable to get configuration descriptor");
		return (FALSE);
 800147c:	0005883a 	mov	r2,zero
 8001480:	0000d306 	br	80017d0 <HIDMProbe+0x3d0>
	}
	if (data_ptr->descr.config.wTotalLength > 256) {
 8001484:	e0bffe17 	ldw	r2,-8(fp)
 8001488:	1080008b 	ldhu	r2,2(r2)
 800148c:	10bfffcc 	andi	r2,r2,65535
 8001490:	10804070 	cmpltui	r2,r2,257
 8001494:	1000031e 	bne	r2,zero,80014a4 <HIDMProbe+0xa4>
		total_length = 256;
 8001498:	00804004 	movi	r2,256
 800149c:	e0bfff8d 	sth	r2,-2(fp)
 80014a0:	00000306 	br	80014b0 <HIDMProbe+0xb0>
	} else {
		total_length = data_ptr->descr.config.wTotalLength;
 80014a4:	e0bffe17 	ldw	r2,-8(fp)
 80014a8:	1080008b 	ldhu	r2,2(r2)
 80014ac:	e0bfff8d 	sth	r2,-2(fp)
	}
	rcode = XferGetConfDescr(addr, 0, total_length, 0, bigbuf); //get the whole configuration
 80014b0:	e13ffa03 	ldbu	r4,-24(fp)
 80014b4:	e0ffff8b 	ldhu	r3,-2(fp)
 80014b8:	008200b4 	movhi	r2,2050
 80014bc:	10aeb704 	addi	r2,r2,-17700
 80014c0:	d8800415 	stw	r2,16(sp)
 80014c4:	d8c00315 	stw	r3,12(sp)
 80014c8:	d8000215 	stw	zero,8(sp)
 80014cc:	00800084 	movi	r2,2
 80014d0:	d8800115 	stw	r2,4(sp)
 80014d4:	d8000015 	stw	zero,0(sp)
 80014d8:	01c00184 	movi	r7,6
 80014dc:	01802004 	movi	r6,128
 80014e0:	000b883a 	mov	r5,zero
 80014e4:	80025880 	call	8002588 <XferCtrlReq>
 80014e8:	e0bffcc5 	stb	r2,-13(fp)
	if (rcode) {   //error handling
 80014ec:	e0bffcc3 	ldbu	r2,-13(fp)
 80014f0:	10000226 	beq	r2,zero,80014fc <HIDMProbe+0xfc>
		//printf("unable to get configuration");
		return (FALSE);
 80014f4:	0005883a 	mov	r2,zero
 80014f8:	0000b506 	br	80017d0 <HIDMProbe+0x3d0>
	}
	confvalue = data_ptr->descr.config.bConfigurationValue;
 80014fc:	e0bffe17 	ldw	r2,-8(fp)
 8001500:	10800143 	ldbu	r2,5(r2)
 8001504:	e0bffc85 	stb	r2,-14(fp)
	//printf("checking configuration value (length: %d): ",
	//		data_ptr->descr.config.wTotalLength);
	//for (int i = 0; i < data_ptr->descr.config.wTotalLength; i++) {
		//printf("%x ", (unsigned char) (bigbuf[i] & 0xff));
	//}
	while (byte_ptr < bigbuf + total_length) {
 8001508:	0000aa06 	br	80017b4 <HIDMProbe+0x3b4>
		if (data_ptr->descr.config.bDescriptorType != USB_DESCRIPTOR_INTERFACE) {
 800150c:	e0bffe17 	ldw	r2,-8(fp)
 8001510:	10800043 	ldbu	r2,1(r2)
 8001514:	10803fcc 	andi	r2,r2,255
 8001518:	10800120 	cmpeqi	r2,r2,4
 800151c:	1000091e 	bne	r2,zero,8001544 <HIDMProbe+0x144>
			byte_ptr = byte_ptr + data_ptr->descr.config.bLength;
 8001520:	e0bffe17 	ldw	r2,-8(fp)
 8001524:	10800003 	ldbu	r2,0(r2)
 8001528:	10803fcc 	andi	r2,r2,255
 800152c:	e0fffd17 	ldw	r3,-12(fp)
 8001530:	1885883a 	add	r2,r3,r2
 8001534:	e0bffd15 	stw	r2,-12(fp)
			data_ptr = (USB_DESCR*) byte_ptr;
 8001538:	e0bffd17 	ldw	r2,-12(fp)
 800153c:	e0bffe15 	stw	r2,-8(fp)
 8001540:	00009c06 	br	80017b4 <HIDMProbe+0x3b4>
		} // if( data_ptr->descr.config.bDescriptorType != USB_DESCRIPTOR_INTERFACE
		else {
			//printf("starting interface parsing at byte location %d\n",
			//		data_ptr->descr.config.bLength);
			BYTE class = data_ptr->descr.interface.bInterfaceClass;
 8001544:	e0bffe17 	ldw	r2,-8(fp)
 8001548:	10800143 	ldbu	r2,5(r2)
 800154c:	e0bffc45 	stb	r2,-15(fp)
			BYTE subclass = data_ptr->descr.interface.bInterfaceSubClass;
 8001550:	e0bffe17 	ldw	r2,-8(fp)
 8001554:	10800183 	ldbu	r2,6(r2)
 8001558:	e0bffc05 	stb	r2,-16(fp)
			BYTE protocol = data_ptr->descr.interface.bInterfaceProtocol;
 800155c:	e0bffe17 	ldw	r2,-8(fp)
 8001560:	108001c3 	ldbu	r2,7(r2)
 8001564:	e0bffbc5 	stb	r2,-17(fp)
			//printf("class %x, subclass %x, protocol %x,\n", class, subclass,
			//		protocol);
			//interface descriptor
			if (class == HID_INTF && subclass == BOOT_INTF_SUBCLASS
 8001568:	e0bffc43 	ldbu	r2,-15(fp)
 800156c:	108000d8 	cmpnei	r2,r2,3
 8001570:	10008e1e 	bne	r2,zero,80017ac <HIDMProbe+0x3ac>
 8001574:	e0bffc03 	ldbu	r2,-16(fp)
 8001578:	10800058 	cmpnei	r2,r2,1
 800157c:	10008b1e 	bne	r2,zero,80017ac <HIDMProbe+0x3ac>
					&& protocol == HID_PROTOCOL_MOUSE) {
 8001580:	e0bffbc3 	ldbu	r2,-17(fp)
 8001584:	10800098 	cmpnei	r2,r2,2
 8001588:	1000881e 	bne	r2,zero,80017ac <HIDMProbe+0x3ac>
				//detected a mouse
				devtable[addr].devclass = HID_M;                  //device class
 800158c:	e0bffa03 	ldbu	r2,-24(fp)
 8001590:	100890fa 	slli	r4,r2,3
 8001594:	00c00084 	movi	r3,2
 8001598:	008200b4 	movhi	r2,2050
 800159c:	2085883a 	add	r2,r4,r2
 80015a0:	10eef805 	stb	r3,-17440(r2)
				tmpbyte = devtable[addr].epinfo->MaxPktSize;
 80015a4:	e0bffa03 	ldbu	r2,-24(fp)
 80015a8:	100690fa 	slli	r3,r2,3
 80015ac:	008200b4 	movhi	r2,2050
 80015b0:	1885883a 	add	r2,r3,r2
 80015b4:	10aef717 	ldw	r2,-17444(r2)
 80015b8:	1080008b 	ldhu	r2,2(r2)
 80015bc:	e0bffb85 	stb	r2,-18(fp)
				HID_init();                         //initialize data structures
 80015c0:	8001bc80 	call	8001bc8 <HID_init>
				devtable[addr].epinfo = hid_ep; //switch endpoint information structure
 80015c4:	e0bffa03 	ldbu	r2,-24(fp)
 80015c8:	100890fa 	slli	r4,r2,3
 80015cc:	00c200b4 	movhi	r3,2050
 80015d0:	18ee9104 	addi	r3,r3,-17852
 80015d4:	008200b4 	movhi	r2,2050
 80015d8:	2085883a 	add	r2,r4,r2
 80015dc:	10eef715 	stw	r3,-17444(r2)
				devtable[addr].epinfo[0].MaxPktSize = tmpbyte;
 80015e0:	e0bffa03 	ldbu	r2,-24(fp)
 80015e4:	100690fa 	slli	r3,r2,3
 80015e8:	008200b4 	movhi	r2,2050
 80015ec:	1885883a 	add	r2,r3,r2
 80015f0:	10aef717 	ldw	r2,-17444(r2)
 80015f4:	e0fffb83 	ldbu	r3,-18(fp)
 80015f8:	10c0008d 	sth	r3,2(r2)
				hid_device.interface =
						data_ptr->descr.interface.bInterfaceNumber;
 80015fc:	e0bffe17 	ldw	r2,-8(fp)
 8001600:	10800083 	ldbu	r2,2(r2)
				hid_device.interface =
 8001604:	d0a736c5 	stb	r2,-25381(gp)
				hid_device.addr = addr;
 8001608:	e0bffa03 	ldbu	r2,-24(fp)
 800160c:	d0a73685 	stb	r2,-25382(gp)
				byte_ptr = byte_ptr + data_ptr->descr.config.bLength;
 8001610:	e0bffe17 	ldw	r2,-8(fp)
 8001614:	10800003 	ldbu	r2,0(r2)
 8001618:	10803fcc 	andi	r2,r2,255
 800161c:	e0fffd17 	ldw	r3,-12(fp)
 8001620:	1885883a 	add	r2,r3,r2
 8001624:	e0bffd15 	stw	r2,-12(fp)
				data_ptr = (USB_DESCR*) byte_ptr;
 8001628:	e0bffd17 	ldw	r2,-12(fp)
 800162c:	e0bffe15 	stw	r2,-8(fp)
				while (byte_ptr < bigbuf + total_length) {
 8001630:	00005706 	br	8001790 <HIDMProbe+0x390>
					if (data_ptr->descr.config.bDescriptorType
 8001634:	e0bffe17 	ldw	r2,-8(fp)
 8001638:	10800043 	ldbu	r2,1(r2)
 800163c:	10803fcc 	andi	r2,r2,255
 8001640:	10800160 	cmpeqi	r2,r2,5
 8001644:	1000091e 	bne	r2,zero,800166c <HIDMProbe+0x26c>
							!= USB_DESCRIPTOR_ENDPOINT) { //skip to endpoint descriptor
						byte_ptr = byte_ptr + data_ptr->descr.config.bLength;
 8001648:	e0bffe17 	ldw	r2,-8(fp)
 800164c:	10800003 	ldbu	r2,0(r2)
 8001650:	10803fcc 	andi	r2,r2,255
 8001654:	e0fffd17 	ldw	r3,-12(fp)
 8001658:	1885883a 	add	r2,r3,r2
 800165c:	e0bffd15 	stw	r2,-12(fp)
						data_ptr = (USB_DESCR*) byte_ptr;
 8001660:	e0bffd17 	ldw	r2,-12(fp)
 8001664:	e0bffe15 	stw	r2,-8(fp)
 8001668:	00004906 	br	8001790 <HIDMProbe+0x390>
					} else {
						/* fill endpoint information structure */
						devtable[addr].epinfo[1].epAddr =
 800166c:	e0bffa03 	ldbu	r2,-24(fp)
 8001670:	100690fa 	slli	r3,r2,3
 8001674:	008200b4 	movhi	r2,2050
 8001678:	1885883a 	add	r2,r3,r2
 800167c:	10aef717 	ldw	r2,-17444(r2)
 8001680:	10800204 	addi	r2,r2,8
								data_ptr->descr.endpoint.bEndpointAddress;
 8001684:	e0fffe17 	ldw	r3,-8(fp)
 8001688:	18c00083 	ldbu	r3,2(r3)
						devtable[addr].epinfo[1].epAddr =
 800168c:	10c00005 	stb	r3,0(r2)
						devtable[addr].epinfo[1].Attr =
 8001690:	e0bffa03 	ldbu	r2,-24(fp)
 8001694:	100690fa 	slli	r3,r2,3
 8001698:	008200b4 	movhi	r2,2050
 800169c:	1885883a 	add	r2,r3,r2
 80016a0:	10aef717 	ldw	r2,-17444(r2)
 80016a4:	10800204 	addi	r2,r2,8
								data_ptr->descr.endpoint.bmAttributes;
 80016a8:	e0fffe17 	ldw	r3,-8(fp)
 80016ac:	18c000c3 	ldbu	r3,3(r3)
						devtable[addr].epinfo[1].Attr =
 80016b0:	10c00045 	stb	r3,1(r2)
						devtable[addr].epinfo[1].MaxPktSize =
 80016b4:	e0bffa03 	ldbu	r2,-24(fp)
 80016b8:	100690fa 	slli	r3,r2,3
 80016bc:	008200b4 	movhi	r2,2050
 80016c0:	1885883a 	add	r2,r3,r2
 80016c4:	10aef717 	ldw	r2,-17444(r2)
 80016c8:	10800204 	addi	r2,r2,8
								data_ptr->descr.endpoint.wMaxPacketSize;
 80016cc:	e0fffe17 	ldw	r3,-8(fp)
 80016d0:	18c0010b 	ldhu	r3,4(r3)
						devtable[addr].epinfo[1].MaxPktSize =
 80016d4:	10c0008d 	sth	r3,2(r2)
						devtable[addr].epinfo[1].Interval =
 80016d8:	e0bffa03 	ldbu	r2,-24(fp)
 80016dc:	100690fa 	slli	r3,r2,3
 80016e0:	008200b4 	movhi	r2,2050
 80016e4:	1885883a 	add	r2,r3,r2
 80016e8:	10aef717 	ldw	r2,-17444(r2)
 80016ec:	10800204 	addi	r2,r2,8
								data_ptr->descr.endpoint.bInterval;
 80016f0:	e0fffe17 	ldw	r3,-8(fp)
 80016f4:	18c00183 	ldbu	r3,6(r3)
						devtable[addr].epinfo[1].Interval =
 80016f8:	10c00105 	stb	r3,4(r2)
						// devtable[ addr ].epinfo[ 1 ].rcvToggle = bmRCVTOG0;
						/* configure device */
						rcode = XferSetConf(addr, 0, confvalue); //set configuration
 80016fc:	e0fffa03 	ldbu	r3,-24(fp)
 8001700:	e0bffc83 	ldbu	r2,-14(fp)
 8001704:	d8000415 	stw	zero,16(sp)
 8001708:	d8000315 	stw	zero,12(sp)
 800170c:	d8000215 	stw	zero,8(sp)
 8001710:	d8000115 	stw	zero,4(sp)
 8001714:	d8800015 	stw	r2,0(sp)
 8001718:	01c00244 	movi	r7,9
 800171c:	000d883a 	mov	r6,zero
 8001720:	000b883a 	mov	r5,zero
 8001724:	1809883a 	mov	r4,r3
 8001728:	80025880 	call	8002588 <XferCtrlReq>
 800172c:	e0bffcc5 	stb	r2,-13(fp)
						if (rcode) {   //error handling
 8001730:	e0bffcc3 	ldbu	r2,-13(fp)
 8001734:	10000226 	beq	r2,zero,8001740 <HIDMProbe+0x340>
							return (FALSE);
 8001738:	0005883a 	mov	r2,zero
 800173c:	00002406 	br	80017d0 <HIDMProbe+0x3d0>
						}
						rcode = XferSetProto(addr, 0, hid_device.interface,
 8001740:	e0fffa03 	ldbu	r3,-24(fp)
 8001744:	d0a736c3 	ldbu	r2,-25381(gp)
 8001748:	10803fcc 	andi	r2,r2,255
 800174c:	d8000415 	stw	zero,16(sp)
 8001750:	d8000315 	stw	zero,12(sp)
 8001754:	d8800215 	stw	r2,8(sp)
 8001758:	d8000115 	stw	zero,4(sp)
 800175c:	d8000015 	stw	zero,0(sp)
 8001760:	01c002c4 	movi	r7,11
 8001764:	01800844 	movi	r6,33
 8001768:	000b883a 	mov	r5,zero
 800176c:	1809883a 	mov	r4,r3
 8001770:	80025880 	call	8002588 <XferCtrlReq>
 8001774:	e0bffcc5 	stb	r2,-13(fp)
								BOOT_PROTOCOL);
						if (rcode) {   //error handling
 8001778:	e0bffcc3 	ldbu	r2,-13(fp)
 800177c:	10000226 	beq	r2,zero,8001788 <HIDMProbe+0x388>
							return (FALSE);
 8001780:	0005883a 	mov	r2,zero
 8001784:	00001206 	br	80017d0 <HIDMProbe+0x3d0>
						} else {
							return (TRUE);
 8001788:	00800044 	movi	r2,1
 800178c:	00001006 	br	80017d0 <HIDMProbe+0x3d0>
				while (byte_ptr < bigbuf + total_length) {
 8001790:	e0ffff8b 	ldhu	r3,-2(fp)
 8001794:	008200b4 	movhi	r2,2050
 8001798:	10aeb704 	addi	r2,r2,-17700
 800179c:	1885883a 	add	r2,r3,r2
 80017a0:	e0fffd17 	ldw	r3,-12(fp)
 80017a4:	18bfa336 	bltu	r3,r2,8001634 <HIDMProbe+0x234>
			if (class == HID_INTF && subclass == BOOT_INTF_SUBCLASS
 80017a8:	00000206 	br	80017b4 <HIDMProbe+0x3b4>
						}
					}
				}   //while( byte_ptr....
			}   //if (Class matches
			else { //if class don't match; die on first interface. Not really correct
				return (FALSE);
 80017ac:	0005883a 	mov	r2,zero
 80017b0:	00000706 	br	80017d0 <HIDMProbe+0x3d0>
	while (byte_ptr < bigbuf + total_length) {
 80017b4:	e0ffff8b 	ldhu	r3,-2(fp)
 80017b8:	008200b4 	movhi	r2,2050
 80017bc:	10aeb704 	addi	r2,r2,-17700
 80017c0:	1885883a 	add	r2,r3,r2
 80017c4:	e0fffd17 	ldw	r3,-12(fp)
 80017c8:	18bf5036 	bltu	r3,r2,800150c <HIDMProbe+0x10c>
			}
		} //else if( data_ptr->
	} // while( byte_ptr < &buf + total_length
	return (FALSE);
 80017cc:	0005883a 	mov	r2,zero
}
 80017d0:	e037883a 	mov	sp,fp
 80017d4:	dfc00117 	ldw	ra,4(sp)
 80017d8:	df000017 	ldw	fp,0(sp)
 80017dc:	dec00204 	addi	sp,sp,8
 80017e0:	f800283a 	ret

080017e4 <HIDKProbe>:
/* HID Keyboard probe. Called from USB state machine.                           */
/* assumes configuration length is less than 256 bytes                          */
/* looks for Class:03, Subclass: 01, Protocol: 01 in interface descriptor       */
/* sets keyboard in boot protocol                                               */
/* assumes single configuration, single endpoint, and interface configuration 0 */
BOOL HIDKProbe(BYTE addr, DWORD flags) {
 80017e4:	defff204 	addi	sp,sp,-56
 80017e8:	dfc00d15 	stw	ra,52(sp)
 80017ec:	df000c15 	stw	fp,48(sp)
 80017f0:	df000c04 	addi	fp,sp,48
 80017f4:	2005883a 	mov	r2,r4
 80017f8:	e17ff915 	stw	r5,-28(fp)
 80017fc:	e0bffa05 	stb	r2,-24(fp)
	BYTE tmpbyte;
	BYTE rcode;
	BYTE confvalue;
	WORD total_length;
	USB_DESCR* data_ptr = (USB_DESCR *) &bigbuf;
 8001800:	008200b4 	movhi	r2,2050
 8001804:	10aeb704 	addi	r2,r2,-17700
 8001808:	e0bffe15 	stw	r2,-8(fp)
	BYTE* byte_ptr = bigbuf;
 800180c:	008200b4 	movhi	r2,2050
 8001810:	10aeb704 	addi	r2,r2,-17700
 8001814:	e0bffd15 	stw	r2,-12(fp)
	rcode = XferGetConfDescr(addr, 0, CONF_DESCR_LEN, 0, bigbuf); //get configuration descriptor
 8001818:	e0fffa03 	ldbu	r3,-24(fp)
 800181c:	008200b4 	movhi	r2,2050
 8001820:	10aeb704 	addi	r2,r2,-17700
 8001824:	d8800415 	stw	r2,16(sp)
 8001828:	00800244 	movi	r2,9
 800182c:	d8800315 	stw	r2,12(sp)
 8001830:	d8000215 	stw	zero,8(sp)
 8001834:	00800084 	movi	r2,2
 8001838:	d8800115 	stw	r2,4(sp)
 800183c:	d8000015 	stw	zero,0(sp)
 8001840:	01c00184 	movi	r7,6
 8001844:	01802004 	movi	r6,128
 8001848:	000b883a 	mov	r5,zero
 800184c:	1809883a 	mov	r4,r3
 8001850:	80025880 	call	8002588 <XferCtrlReq>
 8001854:	e0bffcc5 	stb	r2,-13(fp)
	if (rcode) {   //error handling           
 8001858:	e0bffcc3 	ldbu	r2,-13(fp)
 800185c:	10000226 	beq	r2,zero,8001868 <HIDKProbe+0x84>
		return (FALSE);
 8001860:	0005883a 	mov	r2,zero
 8001864:	0000d306 	br	8001bb4 <HIDKProbe+0x3d0>
	}
	if (data_ptr->descr.config.wTotalLength > 256) {
 8001868:	e0bffe17 	ldw	r2,-8(fp)
 800186c:	1080008b 	ldhu	r2,2(r2)
 8001870:	10bfffcc 	andi	r2,r2,65535
 8001874:	10804070 	cmpltui	r2,r2,257
 8001878:	1000031e 	bne	r2,zero,8001888 <HIDKProbe+0xa4>
		total_length = 256;
 800187c:	00804004 	movi	r2,256
 8001880:	e0bfff8d 	sth	r2,-2(fp)
 8001884:	00000306 	br	8001894 <HIDKProbe+0xb0>
	} else {
		total_length = data_ptr->descr.config.wTotalLength;
 8001888:	e0bffe17 	ldw	r2,-8(fp)
 800188c:	1080008b 	ldhu	r2,2(r2)
 8001890:	e0bfff8d 	sth	r2,-2(fp)
	}
	rcode = XferGetConfDescr(addr, 0, total_length, 0, bigbuf); //get the whole configuration
 8001894:	e13ffa03 	ldbu	r4,-24(fp)
 8001898:	e0ffff8b 	ldhu	r3,-2(fp)
 800189c:	008200b4 	movhi	r2,2050
 80018a0:	10aeb704 	addi	r2,r2,-17700
 80018a4:	d8800415 	stw	r2,16(sp)
 80018a8:	d8c00315 	stw	r3,12(sp)
 80018ac:	d8000215 	stw	zero,8(sp)
 80018b0:	00800084 	movi	r2,2
 80018b4:	d8800115 	stw	r2,4(sp)
 80018b8:	d8000015 	stw	zero,0(sp)
 80018bc:	01c00184 	movi	r7,6
 80018c0:	01802004 	movi	r6,128
 80018c4:	000b883a 	mov	r5,zero
 80018c8:	80025880 	call	8002588 <XferCtrlReq>
 80018cc:	e0bffcc5 	stb	r2,-13(fp)
	if (rcode) {   //error handling
 80018d0:	e0bffcc3 	ldbu	r2,-13(fp)
 80018d4:	10000226 	beq	r2,zero,80018e0 <HIDKProbe+0xfc>
		return (FALSE);
 80018d8:	0005883a 	mov	r2,zero
 80018dc:	0000b506 	br	8001bb4 <HIDKProbe+0x3d0>
	}
	confvalue = data_ptr->descr.config.bConfigurationValue; //save configuration value to use later
 80018e0:	e0bffe17 	ldw	r2,-8(fp)
 80018e4:	10800143 	ldbu	r2,5(r2)
 80018e8:	e0bffc85 	stb	r2,-14(fp)
	while (byte_ptr < bigbuf + total_length) {             //parse configuration
 80018ec:	0000aa06 	br	8001b98 <HIDKProbe+0x3b4>
		if (data_ptr->descr.config.bDescriptorType != USB_DESCRIPTOR_INTERFACE) { //skip to the next descriptor
 80018f0:	e0bffe17 	ldw	r2,-8(fp)
 80018f4:	10800043 	ldbu	r2,1(r2)
 80018f8:	10803fcc 	andi	r2,r2,255
 80018fc:	10800120 	cmpeqi	r2,r2,4
 8001900:	1000091e 	bne	r2,zero,8001928 <HIDKProbe+0x144>
			byte_ptr = byte_ptr + data_ptr->descr.config.bLength;
 8001904:	e0bffe17 	ldw	r2,-8(fp)
 8001908:	10800003 	ldbu	r2,0(r2)
 800190c:	10803fcc 	andi	r2,r2,255
 8001910:	e0fffd17 	ldw	r3,-12(fp)
 8001914:	1885883a 	add	r2,r3,r2
 8001918:	e0bffd15 	stw	r2,-12(fp)
			data_ptr = (USB_DESCR*) byte_ptr;
 800191c:	e0bffd17 	ldw	r2,-12(fp)
 8001920:	e0bffe15 	stw	r2,-8(fp)
 8001924:	00009c06 	br	8001b98 <HIDKProbe+0x3b4>
		} // if( data_ptr->descr.config.bDescriptorType != USB_DESCRIPTOR_INTERFACE
		else {
			//printf("starting interface parsing at byte location %d\n",
			//		data_ptr->descr.config.bLength);
			BYTE class = data_ptr->descr.interface.bInterfaceClass;
 8001928:	e0bffe17 	ldw	r2,-8(fp)
 800192c:	10800143 	ldbu	r2,5(r2)
 8001930:	e0bffc45 	stb	r2,-15(fp)
			BYTE subclass = data_ptr->descr.interface.bInterfaceSubClass;
 8001934:	e0bffe17 	ldw	r2,-8(fp)
 8001938:	10800183 	ldbu	r2,6(r2)
 800193c:	e0bffc05 	stb	r2,-16(fp)
			BYTE protocol = data_ptr->descr.interface.bInterfaceProtocol;
 8001940:	e0bffe17 	ldw	r2,-8(fp)
 8001944:	108001c3 	ldbu	r2,7(r2)
 8001948:	e0bffbc5 	stb	r2,-17(fp)
			//printf("class %x, subclass %x, protocol %x,\n", class, subclass,
			//		protocol);
			//interface descriptor
			if (class == HID_INTF && subclass == BOOT_INTF_SUBCLASS
 800194c:	e0bffc43 	ldbu	r2,-15(fp)
 8001950:	108000d8 	cmpnei	r2,r2,3
 8001954:	10008e1e 	bne	r2,zero,8001b90 <HIDKProbe+0x3ac>
 8001958:	e0bffc03 	ldbu	r2,-16(fp)
 800195c:	10800058 	cmpnei	r2,r2,1
 8001960:	10008b1e 	bne	r2,zero,8001b90 <HIDKProbe+0x3ac>
					&& protocol == HID_PROTOCOL_KEYBOARD) {
 8001964:	e0bffbc3 	ldbu	r2,-17(fp)
 8001968:	10800058 	cmpnei	r2,r2,1
 800196c:	1000881e 	bne	r2,zero,8001b90 <HIDKProbe+0x3ac>
				//detected a keyboard
				devtable[addr].devclass = HID_K;             //fill device class
 8001970:	e0bffa03 	ldbu	r2,-24(fp)
 8001974:	100890fa 	slli	r4,r2,3
 8001978:	00c00044 	movi	r3,1
 800197c:	008200b4 	movhi	r2,2050
 8001980:	2085883a 	add	r2,r4,r2
 8001984:	10eef805 	stb	r3,-17440(r2)
				tmpbyte = devtable[addr].epinfo->MaxPktSize; //save max.packet size
 8001988:	e0bffa03 	ldbu	r2,-24(fp)
 800198c:	100690fa 	slli	r3,r2,3
 8001990:	008200b4 	movhi	r2,2050
 8001994:	1885883a 	add	r2,r3,r2
 8001998:	10aef717 	ldw	r2,-17444(r2)
 800199c:	1080008b 	ldhu	r2,2(r2)
 80019a0:	e0bffb85 	stb	r2,-18(fp)
				HID_init();                         //initialize data structures
 80019a4:	8001bc80 	call	8001bc8 <HID_init>
				devtable[addr].epinfo = hid_ep; //switch endpoint information structure
 80019a8:	e0bffa03 	ldbu	r2,-24(fp)
 80019ac:	100890fa 	slli	r4,r2,3
 80019b0:	00c200b4 	movhi	r3,2050
 80019b4:	18ee9104 	addi	r3,r3,-17852
 80019b8:	008200b4 	movhi	r2,2050
 80019bc:	2085883a 	add	r2,r4,r2
 80019c0:	10eef715 	stw	r3,-17444(r2)
				devtable[addr].epinfo[0].MaxPktSize = tmpbyte; //fill in max.packet size
 80019c4:	e0bffa03 	ldbu	r2,-24(fp)
 80019c8:	100690fa 	slli	r3,r2,3
 80019cc:	008200b4 	movhi	r2,2050
 80019d0:	1885883a 	add	r2,r3,r2
 80019d4:	10aef717 	ldw	r2,-17444(r2)
 80019d8:	e0fffb83 	ldbu	r3,-18(fp)
 80019dc:	10c0008d 	sth	r3,2(r2)
				hid_device.interface =
						data_ptr->descr.interface.bInterfaceNumber; //fill in interface number to be used in HID requests
 80019e0:	e0bffe17 	ldw	r2,-8(fp)
 80019e4:	10800083 	ldbu	r2,2(r2)
				hid_device.interface =
 80019e8:	d0a736c5 	stb	r2,-25381(gp)
				hid_device.addr = addr;                        //fill in address
 80019ec:	e0bffa03 	ldbu	r2,-24(fp)
 80019f0:	d0a73685 	stb	r2,-25382(gp)
				byte_ptr = byte_ptr + data_ptr->descr.config.bLength; //skip to the next descriptor
 80019f4:	e0bffe17 	ldw	r2,-8(fp)
 80019f8:	10800003 	ldbu	r2,0(r2)
 80019fc:	10803fcc 	andi	r2,r2,255
 8001a00:	e0fffd17 	ldw	r3,-12(fp)
 8001a04:	1885883a 	add	r2,r3,r2
 8001a08:	e0bffd15 	stw	r2,-12(fp)
				data_ptr = (USB_DESCR*) byte_ptr;
 8001a0c:	e0bffd17 	ldw	r2,-12(fp)
 8001a10:	e0bffe15 	stw	r2,-8(fp)
				while (byte_ptr < bigbuf + total_length) {
 8001a14:	00005706 	br	8001b74 <HIDKProbe+0x390>
					if (data_ptr->descr.config.bDescriptorType
 8001a18:	e0bffe17 	ldw	r2,-8(fp)
 8001a1c:	10800043 	ldbu	r2,1(r2)
 8001a20:	10803fcc 	andi	r2,r2,255
 8001a24:	10800160 	cmpeqi	r2,r2,5
 8001a28:	1000091e 	bne	r2,zero,8001a50 <HIDKProbe+0x26c>
							!= USB_DESCRIPTOR_ENDPOINT) { //skip to endpoint descriptor
						byte_ptr = byte_ptr + data_ptr->descr.config.bLength;
 8001a2c:	e0bffe17 	ldw	r2,-8(fp)
 8001a30:	10800003 	ldbu	r2,0(r2)
 8001a34:	10803fcc 	andi	r2,r2,255
 8001a38:	e0fffd17 	ldw	r3,-12(fp)
 8001a3c:	1885883a 	add	r2,r3,r2
 8001a40:	e0bffd15 	stw	r2,-12(fp)
						data_ptr = (USB_DESCR*) byte_ptr;
 8001a44:	e0bffd17 	ldw	r2,-12(fp)
 8001a48:	e0bffe15 	stw	r2,-8(fp)
 8001a4c:	00004906 	br	8001b74 <HIDKProbe+0x390>
					} else {
						/* fill endpoint information structure */
						devtable[addr].epinfo[1].epAddr =
 8001a50:	e0bffa03 	ldbu	r2,-24(fp)
 8001a54:	100690fa 	slli	r3,r2,3
 8001a58:	008200b4 	movhi	r2,2050
 8001a5c:	1885883a 	add	r2,r3,r2
 8001a60:	10aef717 	ldw	r2,-17444(r2)
 8001a64:	10800204 	addi	r2,r2,8
								data_ptr->descr.endpoint.bEndpointAddress;
 8001a68:	e0fffe17 	ldw	r3,-8(fp)
 8001a6c:	18c00083 	ldbu	r3,2(r3)
						devtable[addr].epinfo[1].epAddr =
 8001a70:	10c00005 	stb	r3,0(r2)
						devtable[addr].epinfo[1].Attr =
 8001a74:	e0bffa03 	ldbu	r2,-24(fp)
 8001a78:	100690fa 	slli	r3,r2,3
 8001a7c:	008200b4 	movhi	r2,2050
 8001a80:	1885883a 	add	r2,r3,r2
 8001a84:	10aef717 	ldw	r2,-17444(r2)
 8001a88:	10800204 	addi	r2,r2,8
								data_ptr->descr.endpoint.bmAttributes;
 8001a8c:	e0fffe17 	ldw	r3,-8(fp)
 8001a90:	18c000c3 	ldbu	r3,3(r3)
						devtable[addr].epinfo[1].Attr =
 8001a94:	10c00045 	stb	r3,1(r2)
						devtable[addr].epinfo[1].MaxPktSize =
 8001a98:	e0bffa03 	ldbu	r2,-24(fp)
 8001a9c:	100690fa 	slli	r3,r2,3
 8001aa0:	008200b4 	movhi	r2,2050
 8001aa4:	1885883a 	add	r2,r3,r2
 8001aa8:	10aef717 	ldw	r2,-17444(r2)
 8001aac:	10800204 	addi	r2,r2,8
								data_ptr->descr.endpoint.wMaxPacketSize;
 8001ab0:	e0fffe17 	ldw	r3,-8(fp)
 8001ab4:	18c0010b 	ldhu	r3,4(r3)
						devtable[addr].epinfo[1].MaxPktSize =
 8001ab8:	10c0008d 	sth	r3,2(r2)
						devtable[addr].epinfo[1].Interval =
 8001abc:	e0bffa03 	ldbu	r2,-24(fp)
 8001ac0:	100690fa 	slli	r3,r2,3
 8001ac4:	008200b4 	movhi	r2,2050
 8001ac8:	1885883a 	add	r2,r3,r2
 8001acc:	10aef717 	ldw	r2,-17444(r2)
 8001ad0:	10800204 	addi	r2,r2,8
								data_ptr->descr.endpoint.bInterval;
 8001ad4:	e0fffe17 	ldw	r3,-8(fp)
 8001ad8:	18c00183 	ldbu	r3,6(r3)
						devtable[addr].epinfo[1].Interval =
 8001adc:	10c00105 	stb	r3,4(r2)
						/* configure device */
						rcode = XferSetConf(addr, 0, confvalue); //set configuration
 8001ae0:	e0fffa03 	ldbu	r3,-24(fp)
 8001ae4:	e0bffc83 	ldbu	r2,-14(fp)
 8001ae8:	d8000415 	stw	zero,16(sp)
 8001aec:	d8000315 	stw	zero,12(sp)
 8001af0:	d8000215 	stw	zero,8(sp)
 8001af4:	d8000115 	stw	zero,4(sp)
 8001af8:	d8800015 	stw	r2,0(sp)
 8001afc:	01c00244 	movi	r7,9
 8001b00:	000d883a 	mov	r6,zero
 8001b04:	000b883a 	mov	r5,zero
 8001b08:	1809883a 	mov	r4,r3
 8001b0c:	80025880 	call	8002588 <XferCtrlReq>
 8001b10:	e0bffcc5 	stb	r2,-13(fp)
						if (rcode) {   //error handling
 8001b14:	e0bffcc3 	ldbu	r2,-13(fp)
 8001b18:	10000226 	beq	r2,zero,8001b24 <HIDKProbe+0x340>
							return (FALSE);
 8001b1c:	0005883a 	mov	r2,zero
 8001b20:	00002406 	br	8001bb4 <HIDKProbe+0x3d0>
						}
						rcode = XferSetProto(addr, 0, hid_device.interface,
 8001b24:	e0fffa03 	ldbu	r3,-24(fp)
 8001b28:	d0a736c3 	ldbu	r2,-25381(gp)
 8001b2c:	10803fcc 	andi	r2,r2,255
 8001b30:	d8000415 	stw	zero,16(sp)
 8001b34:	d8000315 	stw	zero,12(sp)
 8001b38:	d8800215 	stw	r2,8(sp)
 8001b3c:	d8000115 	stw	zero,4(sp)
 8001b40:	d8000015 	stw	zero,0(sp)
 8001b44:	01c002c4 	movi	r7,11
 8001b48:	01800844 	movi	r6,33
 8001b4c:	000b883a 	mov	r5,zero
 8001b50:	1809883a 	mov	r4,r3
 8001b54:	80025880 	call	8002588 <XferCtrlReq>
 8001b58:	e0bffcc5 	stb	r2,-13(fp)
								BOOT_PROTOCOL);
						if (rcode) {   //error handling
 8001b5c:	e0bffcc3 	ldbu	r2,-13(fp)
 8001b60:	10000226 	beq	r2,zero,8001b6c <HIDKProbe+0x388>
							return (FALSE);
 8001b64:	0005883a 	mov	r2,zero
 8001b68:	00001206 	br	8001bb4 <HIDKProbe+0x3d0>
						} else {
							return (TRUE);
 8001b6c:	00800044 	movi	r2,1
 8001b70:	00001006 	br	8001bb4 <HIDKProbe+0x3d0>
				while (byte_ptr < bigbuf + total_length) {
 8001b74:	e0ffff8b 	ldhu	r3,-2(fp)
 8001b78:	008200b4 	movhi	r2,2050
 8001b7c:	10aeb704 	addi	r2,r2,-17700
 8001b80:	1885883a 	add	r2,r3,r2
 8001b84:	e0fffd17 	ldw	r3,-12(fp)
 8001b88:	18bfa336 	bltu	r3,r2,8001a18 <HIDKProbe+0x234>
			if (class == HID_INTF && subclass == BOOT_INTF_SUBCLASS
 8001b8c:	00000206 	br	8001b98 <HIDKProbe+0x3b4>
						}
					}
				}   //while( byte_ptr....
			}   //if (Class matches
			else { //if class don't match; stop processing after first interface. Not really correct
				return (FALSE);
 8001b90:	0005883a 	mov	r2,zero
 8001b94:	00000706 	br	8001bb4 <HIDKProbe+0x3d0>
	while (byte_ptr < bigbuf + total_length) {             //parse configuration
 8001b98:	e0ffff8b 	ldhu	r3,-2(fp)
 8001b9c:	008200b4 	movhi	r2,2050
 8001ba0:	10aeb704 	addi	r2,r2,-17700
 8001ba4:	1885883a 	add	r2,r3,r2
 8001ba8:	e0fffd17 	ldw	r3,-12(fp)
 8001bac:	18bf5036 	bltu	r3,r2,80018f0 <HIDKProbe+0x10c>
			}
		} //else if( data_ptr->
	} // while( byte_ptr < &buf + total_length
	return (FALSE);
 8001bb0:	0005883a 	mov	r2,zero
}
 8001bb4:	e037883a 	mov	sp,fp
 8001bb8:	dfc00117 	ldw	ra,4(sp)
 8001bbc:	df000017 	ldw	fp,0(sp)
 8001bc0:	dec00204 	addi	sp,sp,8
 8001bc4:	f800283a 	ret

08001bc8 <HID_init>:
/* HID data structures initialization */
void HID_init(void) {
 8001bc8:	deffff04 	addi	sp,sp,-4
 8001bcc:	df000015 	stw	fp,0(sp)
 8001bd0:	d839883a 	mov	fp,sp
	hid_ep[1].sndToggle = bmSNDTOG0;
 8001bd4:	00c01004 	movi	r3,64
 8001bd8:	008200b4 	movhi	r2,2050
 8001bdc:	10ee9445 	stb	r3,-17839(r2)
	hid_ep[1].rcvToggle = bmRCVTOG0;
 8001be0:	00c00404 	movi	r3,16
 8001be4:	008200b4 	movhi	r2,2050
 8001be8:	10ee9485 	stb	r3,-17838(r2)
}
 8001bec:	0001883a 	nop
 8001bf0:	e037883a 	mov	sp,fp
 8001bf4:	df000017 	ldw	fp,0(sp)
 8001bf8:	dec00104 	addi	sp,sp,4
 8001bfc:	f800283a 	ret

08001c00 <mousePoll>:
/* poll boot mouse */
BYTE mousePoll(BOOT_MOUSE_REPORT* buf) {
 8001c00:	defffb04 	addi	sp,sp,-20
 8001c04:	dfc00415 	stw	ra,16(sp)
 8001c08:	df000315 	stw	fp,12(sp)
 8001c0c:	df000304 	addi	fp,sp,12
 8001c10:	e13ffe15 	stw	r4,-8(fp)
	BYTE rcode;
	MAXreg_wr( rPERADDR, hid_device.addr);    //set peripheral address
 8001c14:	d0a73683 	ldbu	r2,-25382(gp)
 8001c18:	10803fcc 	andi	r2,r2,255
 8001c1c:	100b883a 	mov	r5,r2
 8001c20:	01003804 	movi	r4,224
 8001c24:	8001de80 	call	8001de8 <MAXreg_wr>
	rcode = XferInTransfer(hid_device.addr, 1, 8, (BYTE*) buf,
 8001c28:	d0a73683 	ldbu	r2,-25382(gp)
 8001c2c:	11003fcc 	andi	r4,r2,255
			devtable[hid_device.addr].epinfo[1].MaxPktSize);
 8001c30:	d0a73683 	ldbu	r2,-25382(gp)
 8001c34:	10803fcc 	andi	r2,r2,255
 8001c38:	100690fa 	slli	r3,r2,3
 8001c3c:	008200b4 	movhi	r2,2050
 8001c40:	1885883a 	add	r2,r3,r2
 8001c44:	10aef717 	ldw	r2,-17444(r2)
 8001c48:	10800204 	addi	r2,r2,8
 8001c4c:	1080008b 	ldhu	r2,2(r2)
	rcode = XferInTransfer(hid_device.addr, 1, 8, (BYTE*) buf,
 8001c50:	10803fcc 	andi	r2,r2,255
 8001c54:	d8800015 	stw	r2,0(sp)
 8001c58:	e1fffe17 	ldw	r7,-8(fp)
 8001c5c:	01800204 	movi	r6,8
 8001c60:	01400044 	movi	r5,1
 8001c64:	80029c80 	call	80029c8 <XferInTransfer>
 8001c68:	e0bfffc5 	stb	r2,-1(fp)
	return (rcode);
 8001c6c:	e0bfffc3 	ldbu	r2,-1(fp)
}
 8001c70:	e037883a 	mov	sp,fp
 8001c74:	dfc00117 	ldw	ra,4(sp)
 8001c78:	df000017 	ldw	fp,0(sp)
 8001c7c:	dec00204 	addi	sp,sp,8
 8001c80:	f800283a 	ret

08001c84 <kbdPoll>:
/* poll boot keyboard */
BYTE kbdPoll(BOOT_KBD_REPORT* buf) {
 8001c84:	defffb04 	addi	sp,sp,-20
 8001c88:	dfc00415 	stw	ra,16(sp)
 8001c8c:	df000315 	stw	fp,12(sp)
 8001c90:	df000304 	addi	fp,sp,12
 8001c94:	e13ffe15 	stw	r4,-8(fp)
	BYTE rcode;
	MAXreg_wr( rPERADDR, hid_device.addr);    //set peripheral address
 8001c98:	d0a73683 	ldbu	r2,-25382(gp)
 8001c9c:	10803fcc 	andi	r2,r2,255
 8001ca0:	100b883a 	mov	r5,r2
 8001ca4:	01003804 	movi	r4,224
 8001ca8:	8001de80 	call	8001de8 <MAXreg_wr>
	//usleep(1000);
	rcode = XferInTransfer(hid_device.addr, 1, 8, (BYTE*) buf,
 8001cac:	d0a73683 	ldbu	r2,-25382(gp)
 8001cb0:	11003fcc 	andi	r4,r2,255
			devtable[hid_device.addr].epinfo[1].MaxPktSize);
 8001cb4:	d0a73683 	ldbu	r2,-25382(gp)
 8001cb8:	10803fcc 	andi	r2,r2,255
 8001cbc:	100690fa 	slli	r3,r2,3
 8001cc0:	008200b4 	movhi	r2,2050
 8001cc4:	1885883a 	add	r2,r3,r2
 8001cc8:	10aef717 	ldw	r2,-17444(r2)
 8001ccc:	10800204 	addi	r2,r2,8
 8001cd0:	1080008b 	ldhu	r2,2(r2)
	rcode = XferInTransfer(hid_device.addr, 1, 8, (BYTE*) buf,
 8001cd4:	10803fcc 	andi	r2,r2,255
 8001cd8:	d8800015 	stw	r2,0(sp)
 8001cdc:	e1fffe17 	ldw	r7,-8(fp)
 8001ce0:	01800204 	movi	r6,8
 8001ce4:	01400044 	movi	r5,1
 8001ce8:	80029c80 	call	80029c8 <XferInTransfer>
 8001cec:	e0bfffc5 	stb	r2,-1(fp)
	return (rcode);
 8001cf0:	e0bfffc3 	ldbu	r2,-1(fp)
}
 8001cf4:	e037883a 	mov	sp,fp
 8001cf8:	dfc00117 	ldw	ra,4(sp)
 8001cfc:	df000017 	ldw	fp,0(sp)
 8001d00:	dec00204 	addi	sp,sp,8
 8001d04:	f800283a 	ret

08001d08 <HIDMEventHandler>:
BOOL HIDMEventHandler(BYTE address, BYTE event, void *data, DWORD size) {
 8001d08:	defffb04 	addi	sp,sp,-20
 8001d0c:	df000415 	stw	fp,16(sp)
 8001d10:	df000404 	addi	fp,sp,16
 8001d14:	2005883a 	mov	r2,r4
 8001d18:	2807883a 	mov	r3,r5
 8001d1c:	e1bffd15 	stw	r6,-12(fp)
 8001d20:	e1fffc15 	stw	r7,-16(fp)
 8001d24:	e0bfff05 	stb	r2,-4(fp)
 8001d28:	1805883a 	mov	r2,r3
 8001d2c:	e0bffe05 	stb	r2,-8(fp)
	return (FALSE);
 8001d30:	0005883a 	mov	r2,zero
}
 8001d34:	e037883a 	mov	sp,fp
 8001d38:	df000017 	ldw	fp,0(sp)
 8001d3c:	dec00104 	addi	sp,sp,4
 8001d40:	f800283a 	ret

08001d44 <HIDKEventHandler>:
BOOL HIDKEventHandler(BYTE address, BYTE event, void *data, DWORD size) {
 8001d44:	defffb04 	addi	sp,sp,-20
 8001d48:	df000415 	stw	fp,16(sp)
 8001d4c:	df000404 	addi	fp,sp,16
 8001d50:	2005883a 	mov	r2,r4
 8001d54:	2807883a 	mov	r3,r5
 8001d58:	e1bffd15 	stw	r6,-12(fp)
 8001d5c:	e1fffc15 	stw	r7,-16(fp)
 8001d60:	e0bfff05 	stb	r2,-4(fp)
 8001d64:	1805883a 	mov	r2,r3
 8001d68:	e0bffe05 	stb	r2,-8(fp)
	return (FALSE);
 8001d6c:	0005883a 	mov	r2,zero
}
 8001d70:	e037883a 	mov	sp,fp
 8001d74:	df000017 	ldw	fp,0(sp)
 8001d78:	dec00104 	addi	sp,sp,4
 8001d7c:	f800283a 	ret

08001d80 <SPI_init>:
//variables and data structures
//External variables
extern BYTE usb_task_state;

/* Functions    */
void SPI_init(BYTE sync_mode, BYTE bus_mode, BYTE smp_phase) {
 8001d80:	defffc04 	addi	sp,sp,-16
 8001d84:	df000315 	stw	fp,12(sp)
 8001d88:	df000304 	addi	fp,sp,12
 8001d8c:	2005883a 	mov	r2,r4
 8001d90:	2809883a 	mov	r4,r5
 8001d94:	3007883a 	mov	r3,r6
 8001d98:	e0bfff05 	stb	r2,-4(fp)
 8001d9c:	2005883a 	mov	r2,r4
 8001da0:	e0bffe05 	stb	r2,-8(fp)
 8001da4:	1805883a 	mov	r2,r3
 8001da8:	e0bffd05 	stb	r2,-12(fp)
	//Don't need to initialize SPI port, already ready to go with BSP
}
 8001dac:	0001883a 	nop
 8001db0:	e037883a 	mov	sp,fp
 8001db4:	df000017 	ldw	fp,0(sp)
 8001db8:	dec00104 	addi	sp,sp,4
 8001dbc:	f800283a 	ret

08001dc0 <SPI_wr>:

//writes single byte to MAX3421E via SPI, simultanously reads status register and returns it
BYTE SPI_wr(BYTE data) {
 8001dc0:	defffe04 	addi	sp,sp,-8
 8001dc4:	df000115 	stw	fp,4(sp)
 8001dc8:	df000104 	addi	fp,sp,4
 8001dcc:	2005883a 	mov	r2,r4
 8001dd0:	e0bfff05 	stb	r2,-4(fp)
	//This function is never used by the code, so you do not need to fill it in
}
 8001dd4:	0001883a 	nop
 8001dd8:	e037883a 	mov	sp,fp
 8001ddc:	df000017 	ldw	fp,0(sp)
 8001de0:	dec00104 	addi	sp,sp,4
 8001de4:	f800283a 	ret

08001de8 <MAXreg_wr>:
//writes register to MAX3421E via SPI
void MAXreg_wr(BYTE reg, BYTE val) {
 8001de8:	defff604 	addi	sp,sp,-40
 8001dec:	dfc00915 	stw	ra,36(sp)
 8001df0:	df000815 	stw	fp,32(sp)
 8001df4:	df000804 	addi	fp,sp,32
 8001df8:	2005883a 	mov	r2,r4
 8001dfc:	2807883a 	mov	r3,r5
 8001e00:	e0bffc05 	stb	r2,-16(fp)
 8001e04:	1805883a 	mov	r2,r3
 8001e08:	e0bffb05 	stb	r2,-20(fp)
	//deselect MAX3421E (may not be necessary if you are using SPI peripheral)

	alt_u8 wdata[2];
	//alt_u8 wdata_addr[1];
	//alt_u8 wdata[1];
	alt_u8* rdata = NULL;
 8001e0c:	e03fff15 	stw	zero,-4(fp)
	int spi_command_retval;

	//wdata_addr[0] = reg+2;
	wdata[0] = reg+2;
 8001e10:	e0bffc03 	ldbu	r2,-16(fp)
 8001e14:	10800084 	addi	r2,r2,2
 8001e18:	e0bffd85 	stb	r2,-10(fp)
	wdata[1] = val; //correct order?
 8001e1c:	e0bffb03 	ldbu	r2,-20(fp)
 8001e20:	e0bffdc5 	stb	r2,-9(fp)
	spi_command_retval = alt_avalon_spi_command(SPI_0_BASE,0,2,wdata,0,rdata,0);
 8001e24:	e0fffd84 	addi	r3,fp,-10
 8001e28:	d8000215 	stw	zero,8(sp)
 8001e2c:	e0bfff17 	ldw	r2,-4(fp)
 8001e30:	d8800115 	stw	r2,4(sp)
 8001e34:	d8000015 	stw	zero,0(sp)
 8001e38:	180f883a 	mov	r7,r3
 8001e3c:	01800084 	movi	r6,2
 8001e40:	000b883a 	mov	r5,zero
 8001e44:	01000804 	movi	r4,32
 8001e48:	8015f300 	call	8015f30 <alt_avalon_spi_command>
 8001e4c:	e0bffe15 	stw	r2,-8(fp)
			return;
		}
		*/

	//spi_command_retval = alt_avalon_spi_command(SPI_0_BASE,0,1,wdata,0,rdata,0);
	if (spi_command_retval < 0) {
 8001e50:	e0bffe17 	ldw	r2,-8(fp)
 8001e54:	1000070e 	bge	r2,zero,8001e74 <MAXreg_wr+0x8c>
				printf("\nInvalid return value from 'alt_avalon_spi_command' function\n");
 8001e58:	01020074 	movhi	r4,2049
 8001e5c:	211e1c04 	addi	r4,r4,30832
 8001e60:	80086500 	call	8008650 <puts>
				printf("\nCould complete read operation with given address\n");
 8001e64:	01020074 	movhi	r4,2049
 8001e68:	211e2c04 	addi	r4,r4,30896
 8001e6c:	80086500 	call	8008650 <puts>
				return;
 8001e70:	00000106 	br	8001e78 <MAXreg_wr+0x90>
			}

	return;
 8001e74:	0001883a 	nop
	//spi_command_retval = alt_avalon_spi_command(QSYS_SPI_BASE,0,1,wdata,);
}
 8001e78:	e037883a 	mov	sp,fp
 8001e7c:	dfc00117 	ldw	ra,4(sp)
 8001e80:	df000017 	ldw	fp,0(sp)
 8001e84:	dec00204 	addi	sp,sp,8
 8001e88:	f800283a 	ret

08001e8c <MAXbytes_wr>:

//multiple-byte write
//returns a pointer to a memory position after last written
BYTE* MAXbytes_wr(BYTE reg, BYTE nbytes, BYTE* data) {
 8001e8c:	defff404 	addi	sp,sp,-48
 8001e90:	dfc00b15 	stw	ra,44(sp)
 8001e94:	df000a15 	stw	fp,40(sp)
 8001e98:	df000a04 	addi	fp,sp,40
 8001e9c:	2005883a 	mov	r2,r4
 8001ea0:	2807883a 	mov	r3,r5
 8001ea4:	e1bff915 	stw	r6,-28(fp)
 8001ea8:	e0bffb05 	stb	r2,-20(fp)
 8001eac:	1805883a 	mov	r2,r3
 8001eb0:	e0bffa05 	stb	r2,-24(fp)
	//read return code from SPI peripheral (see Intel documentation) 
	//if return code < 0  print an error
	//deselect MAX3421E (may not be necessary if you are using SPI peripheral)
	//return (data + nbytes);
	alt_u8 wdata_addr[1];
	alt_u8* wdata = data;
 8001eb4:	e0bff917 	ldw	r2,-28(fp)
 8001eb8:	e0bfff15 	stw	r2,-4(fp)
	alt_u8* rnull = NULL;
 8001ebc:	e03ffe15 	stw	zero,-8(fp)
	int i,spi_command_retval;

	wdata_addr[0] = reg+2;
 8001ec0:	e0bffb03 	ldbu	r2,-20(fp)
 8001ec4:	10800084 	addi	r2,r2,2
 8001ec8:	e0bffcc5 	stb	r2,-13(fp)

	spi_command_retval = alt_avalon_spi_command(SPI_0_BASE,0,1,wdata_addr,0,rnull,ALT_AVALON_SPI_COMMAND_MERGE);
 8001ecc:	e0fffcc4 	addi	r3,fp,-13
 8001ed0:	00800044 	movi	r2,1
 8001ed4:	d8800215 	stw	r2,8(sp)
 8001ed8:	e0bffe17 	ldw	r2,-8(fp)
 8001edc:	d8800115 	stw	r2,4(sp)
 8001ee0:	d8000015 	stw	zero,0(sp)
 8001ee4:	180f883a 	mov	r7,r3
 8001ee8:	01800044 	movi	r6,1
 8001eec:	000b883a 	mov	r5,zero
 8001ef0:	01000804 	movi	r4,32
 8001ef4:	8015f300 	call	8015f30 <alt_avalon_spi_command>
 8001ef8:	e0bffd15 	stw	r2,-12(fp)
			printf("\nInvalid return value from 'alt_avalon_spi_command' function\n");
			printf("\nCould not write address for write operation\n");
			return data;
		}
	*/
	spi_command_retval = alt_avalon_spi_command(SPI_0_BASE,0,nbytes,wdata,0,rnull,0);
 8001efc:	e0fffa03 	ldbu	r3,-24(fp)
 8001f00:	d8000215 	stw	zero,8(sp)
 8001f04:	e0bffe17 	ldw	r2,-8(fp)
 8001f08:	d8800115 	stw	r2,4(sp)
 8001f0c:	d8000015 	stw	zero,0(sp)
 8001f10:	e1ffff17 	ldw	r7,-4(fp)
 8001f14:	180d883a 	mov	r6,r3
 8001f18:	000b883a 	mov	r5,zero
 8001f1c:	01000804 	movi	r4,32
 8001f20:	8015f300 	call	8015f30 <alt_avalon_spi_command>
 8001f24:	e0bffd15 	stw	r2,-12(fp)
	if (spi_command_retval < 0) {
 8001f28:	e0bffd17 	ldw	r2,-12(fp)
 8001f2c:	1000080e 	bge	r2,zero,8001f50 <MAXbytes_wr+0xc4>
		printf("\nInvalid return value from 'alt_avalon_spi_command' function\n");
 8001f30:	01020074 	movhi	r4,2049
 8001f34:	211e1c04 	addi	r4,r4,30832
 8001f38:	80086500 	call	8008650 <puts>
		printf("\nCould complete read operation with given address\n");
 8001f3c:	01020074 	movhi	r4,2049
 8001f40:	211e2c04 	addi	r4,r4,30896
 8001f44:	80086500 	call	8008650 <puts>
		return data;
 8001f48:	e0bff917 	ldw	r2,-28(fp)
 8001f4c:	00000306 	br	8001f5c <MAXbytes_wr+0xd0>
	}

	return (data+nbytes);
 8001f50:	e0bffa03 	ldbu	r2,-24(fp)
 8001f54:	e0fff917 	ldw	r3,-28(fp)
 8001f58:	1885883a 	add	r2,r3,r2


}
 8001f5c:	e037883a 	mov	sp,fp
 8001f60:	dfc00117 	ldw	ra,4(sp)
 8001f64:	df000017 	ldw	fp,0(sp)
 8001f68:	dec00204 	addi	sp,sp,8
 8001f6c:	f800283a 	ret

08001f70 <MAXreg_rd>:

//reads register from MAX3421E via SPI
BYTE MAXreg_rd(BYTE reg) {
 8001f70:	defff804 	addi	sp,sp,-32
 8001f74:	dfc00715 	stw	ra,28(sp)
 8001f78:	df000615 	stw	fp,24(sp)
 8001f7c:	df000604 	addi	fp,sp,24
 8001f80:	2005883a 	mov	r2,r4
 8001f84:	e0bffd05 	stb	r2,-12(fp)

	alt_u8 wdata[1];
	alt_u8 rdata[1];
	int spi_command_retval;

	wdata[0] = reg;
 8001f88:	e0bffd03 	ldbu	r2,-12(fp)
 8001f8c:	e0bffe45 	stb	r2,-7(fp)
	spi_command_retval = alt_avalon_spi_command(SPI_0_BASE,0,1,wdata,1,rdata,0);
 8001f90:	e0fffe44 	addi	r3,fp,-7
 8001f94:	d8000215 	stw	zero,8(sp)
 8001f98:	e0bffe04 	addi	r2,fp,-8
 8001f9c:	d8800115 	stw	r2,4(sp)
 8001fa0:	00800044 	movi	r2,1
 8001fa4:	d8800015 	stw	r2,0(sp)
 8001fa8:	180f883a 	mov	r7,r3
 8001fac:	01800044 	movi	r6,1
 8001fb0:	000b883a 	mov	r5,zero
 8001fb4:	01000804 	movi	r4,32
 8001fb8:	8015f300 	call	8015f30 <alt_avalon_spi_command>
 8001fbc:	e0bfff15 	stw	r2,-4(fp)
	if (spi_command_retval < 0) {
 8001fc0:	e0bfff17 	ldw	r2,-4(fp)
 8001fc4:	10000a0e 	bge	r2,zero,8001ff0 <MAXreg_rd+0x80>
			printf("\nInvalid return value from 'alt_avalon_spi_command' function\n");
 8001fc8:	01020074 	movhi	r4,2049
 8001fcc:	211e1c04 	addi	r4,r4,30832
 8001fd0:	80086500 	call	8008650 <puts>
			printf("Could not read from written address\n");
 8001fd4:	01020074 	movhi	r4,2049
 8001fd8:	211e3904 	addi	r4,r4,30948
 8001fdc:	80086500 	call	8008650 <puts>
			BYTE invalid_rd = 0x81;
 8001fe0:	00bfe044 	movi	r2,-127
 8001fe4:	e0bffe85 	stb	r2,-6(fp)
			return invalid_rd;
 8001fe8:	e0bffe83 	ldbu	r2,-6(fp)
 8001fec:	00000306 	br	8001ffc <MAXreg_rd+0x8c>
		}
	BYTE ret = (BYTE)rdata[0];
 8001ff0:	e0bffe03 	ldbu	r2,-8(fp)
 8001ff4:	e0bffec5 	stb	r2,-5(fp)
	return ret;
 8001ff8:	e0bffec3 	ldbu	r2,-5(fp)
}
 8001ffc:	e037883a 	mov	sp,fp
 8002000:	dfc00117 	ldw	ra,4(sp)
 8002004:	df000017 	ldw	fp,0(sp)
 8002008:	dec00204 	addi	sp,sp,8
 800200c:	f800283a 	ret

08002010 <MAXbytes_rd>:
//multiple-byte write
//returns a pointer to a memory position after last written
BYTE* MAXbytes_rd(BYTE reg, BYTE nbytes, BYTE* data) {
 8002010:	defff204 	addi	sp,sp,-56
 8002014:	dfc00d15 	stw	ra,52(sp)
 8002018:	df000c15 	stw	fp,48(sp)
 800201c:	df000c04 	addi	fp,sp,48
 8002020:	2005883a 	mov	r2,r4
 8002024:	2807883a 	mov	r3,r5
 8002028:	e1bff715 	stw	r6,-36(fp)
 800202c:	e0bff905 	stb	r2,-28(fp)
 8002030:	1805883a 	mov	r2,r3
 8002034:	e0bff805 	stb	r2,-32(fp)
	//if return code < 0 print an error
	//deselect MAX3421E (may not be necessary if you are using SPI peripheral)
	//return (data + nbytes);

	alt_u8 wdata[1];
	alt_u8* wnull = NULL;
 8002038:	e03fff15 	stw	zero,-4(fp)
	alt_u8* rdata = data;
 800203c:	e0bff717 	ldw	r2,-36(fp)
 8002040:	e0bffe15 	stw	r2,-8(fp)
	alt_u8* rnull = NULL;
 8002044:	e03ffd15 	stw	zero,-12(fp)

	int spi_command_retval;

	wdata[0] = reg;
 8002048:	e0bff903 	ldbu	r2,-28(fp)
 800204c:	e0bffac5 	stb	r2,-21(fp)
	//spi_command_retval = alt_avalon_spi_command(SPI_0_BASE,0,1,wdata,nbytes,rdata,0); //are flags still 0?
	spi_command_retval = alt_avalon_spi_command(SPI_0_BASE,0,1,wdata,0,rnull,ALT_AVALON_SPI_COMMAND_MERGE);
 8002050:	e0fffac4 	addi	r3,fp,-21
 8002054:	00800044 	movi	r2,1
 8002058:	d8800215 	stw	r2,8(sp)
 800205c:	e0bffd17 	ldw	r2,-12(fp)
 8002060:	d8800115 	stw	r2,4(sp)
 8002064:	d8000015 	stw	zero,0(sp)
 8002068:	180f883a 	mov	r7,r3
 800206c:	01800044 	movi	r6,1
 8002070:	000b883a 	mov	r5,zero
 8002074:	01000804 	movi	r4,32
 8002078:	8015f300 	call	8015f30 <alt_avalon_spi_command>
 800207c:	e0bffc15 	stw	r2,-16(fp)
	if (spi_command_retval < 0) {
 8002080:	e0bffc17 	ldw	r2,-16(fp)
 8002084:	1000090e 	bge	r2,zero,80020ac <MAXbytes_rd+0x9c>
			printf("\nInvalid return value from 'alt_avalon_spi_command' function\n");
 8002088:	01020074 	movhi	r4,2049
 800208c:	211e1c04 	addi	r4,r4,30832
 8002090:	80086500 	call	8008650 <puts>
			printf("Could not perform read operation\n");
 8002094:	01020074 	movhi	r4,2049
 8002098:	211e4204 	addi	r4,r4,30984
 800209c:	80086500 	call	8008650 <puts>
			BYTE* invalid_rd = NULL;
 80020a0:	e03ffb15 	stw	zero,-20(fp)
			return invalid_rd;
 80020a4:	e0bffb17 	ldw	r2,-20(fp)
 80020a8:	00000e06 	br	80020e4 <MAXbytes_rd+0xd4>
		}
	spi_command_retval = alt_avalon_spi_command(SPI_0_BASE,0,0,wnull,nbytes,data,0);
 80020ac:	e0bff803 	ldbu	r2,-32(fp)
 80020b0:	d8000215 	stw	zero,8(sp)
 80020b4:	e0fff717 	ldw	r3,-36(fp)
 80020b8:	d8c00115 	stw	r3,4(sp)
 80020bc:	d8800015 	stw	r2,0(sp)
 80020c0:	e1ffff17 	ldw	r7,-4(fp)
 80020c4:	000d883a 	mov	r6,zero
 80020c8:	000b883a 	mov	r5,zero
 80020cc:	01000804 	movi	r4,32
 80020d0:	8015f300 	call	8015f30 <alt_avalon_spi_command>
 80020d4:	e0bffc15 	stw	r2,-16(fp)
	return (data+nbytes);
 80020d8:	e0bff803 	ldbu	r2,-32(fp)
 80020dc:	e0fff717 	ldw	r3,-36(fp)
 80020e0:	1885883a 	add	r2,r3,r2

}
 80020e4:	e037883a 	mov	sp,fp
 80020e8:	dfc00117 	ldw	ra,4(sp)
 80020ec:	df000017 	ldw	fp,0(sp)
 80020f0:	dec00204 	addi	sp,sp,8
 80020f4:	f800283a 	ret

080020f8 <MAX3421E_reset>:
/* reset MAX3421E using chip reset bit. SPI configuration is not affected   */
void MAX3421E_reset(void) {
 80020f8:	defffd04 	addi	sp,sp,-12
 80020fc:	dfc00215 	stw	ra,8(sp)
 8002100:	df000115 	stw	fp,4(sp)
 8002104:	df000104 	addi	fp,sp,4
	//hardware reset, then software reset
	IOWR_ALTERA_AVALON_PIO_DATA(USB_RST_BASE, 0);
 8002108:	0005883a 	mov	r2,zero
 800210c:	00809435 	stwio	r2,592(zero)
	usleep(1000000);
 8002110:	010003f4 	movhi	r4,15
 8002114:	21109004 	addi	r4,r4,16960
 8002118:	80136400 	call	8013640 <usleep>
	IOWR_ALTERA_AVALON_PIO_DATA(USB_RST_BASE, 1);
 800211c:	00800044 	movi	r2,1
 8002120:	00809435 	stwio	r2,592(zero)
	BYTE tmp = 0;
 8002124:	e03fffc5 	stb	zero,-1(fp)
	MAXreg_wr( rUSBCTL, bmCHIPRES);      //Chip reset. This stops the oscillator
 8002128:	01400804 	movi	r5,32
 800212c:	01001e04 	movi	r4,120
 8002130:	8001de80 	call	8001de8 <MAXreg_wr>
	MAXreg_wr( rUSBCTL, 0x00);                          //Remove the reset
 8002134:	000b883a 	mov	r5,zero
 8002138:	01001e04 	movi	r4,120
 800213c:	8001de80 	call	8001de8 <MAXreg_wr>

	while (!(MAXreg_rd( rUSBIRQ) & bmOSCOKIRQ)) { //wait until the PLL stabilizes
 8002140:	00000806 	br	8002164 <MAX3421E_reset+0x6c>
		tmp++;                                      //timeout after 256 attempts
 8002144:	e0bfffc3 	ldbu	r2,-1(fp)
 8002148:	10800044 	addi	r2,r2,1
 800214c:	e0bfffc5 	stb	r2,-1(fp)
		if (tmp == 0) {
 8002150:	e0bfffc3 	ldbu	r2,-1(fp)
 8002154:	1000031e 	bne	r2,zero,8002164 <MAX3421E_reset+0x6c>
			printf("reset timeout!");
 8002158:	01020074 	movhi	r4,2049
 800215c:	211e4b04 	addi	r4,r4,31020
 8002160:	800852c0 	call	800852c <printf>
	while (!(MAXreg_rd( rUSBIRQ) & bmOSCOKIRQ)) { //wait until the PLL stabilizes
 8002164:	01001a04 	movi	r4,104
 8002168:	8001f700 	call	8001f70 <MAXreg_rd>
 800216c:	10803fcc 	andi	r2,r2,255
 8002170:	1080004c 	andi	r2,r2,1
 8002174:	103ff326 	beq	r2,zero,8002144 <MAX3421E_reset+0x4c>
		}
	}

}
 8002178:	0001883a 	nop
 800217c:	0001883a 	nop
 8002180:	e037883a 	mov	sp,fp
 8002184:	dfc00117 	ldw	ra,4(sp)
 8002188:	df000017 	ldw	fp,0(sp)
 800218c:	dec00204 	addi	sp,sp,8
 8002190:	f800283a 	ret

08002194 <Vbus_power>:
/* turn USB power on/off                                                */
/* ON pin of VBUS switch (MAX4793 or similar) is connected to GPOUT7    */
/* OVERLOAD pin of Vbus switch is connected to GPIN7                    */
/* OVERLOAD state low. NO OVERLOAD or VBUS OFF state high.              */
BOOL Vbus_power(BOOL action) {
 8002194:	defffe04 	addi	sp,sp,-8
 8002198:	df000115 	stw	fp,4(sp)
 800219c:	df000104 	addi	fp,sp,4
 80021a0:	e13fff15 	stw	r4,-4(fp)
	// power on/off successful
	return (1);
 80021a4:	00800044 	movi	r2,1
}
 80021a8:	e037883a 	mov	sp,fp
 80021ac:	df000017 	ldw	fp,0(sp)
 80021b0:	dec00104 	addi	sp,sp,4
 80021b4:	f800283a 	ret

080021b8 <MAX_busprobe>:

/* probe bus to determine device presence and speed */
void MAX_busprobe(void) {
 80021b8:	defffd04 	addi	sp,sp,-12
 80021bc:	dfc00215 	stw	ra,8(sp)
 80021c0:	df000115 	stw	fp,4(sp)
 80021c4:	df000104 	addi	fp,sp,4
	BYTE bus_sample;

//  MAXreg_wr(rHCTL,bmSAMPLEBUS);
	bus_sample = MAXreg_rd( rHRSL);            //Get J,K status
 80021c8:	01003e04 	movi	r4,248
 80021cc:	8001f700 	call	8001f70 <MAXreg_rd>
 80021d0:	e0bfffc5 	stb	r2,-1(fp)
	bus_sample &= ( bmJSTATUS | bmKSTATUS);      //zero the rest of the byte
 80021d4:	e0ffffc3 	ldbu	r3,-1(fp)
 80021d8:	00bff004 	movi	r2,-64
 80021dc:	1884703a 	and	r2,r3,r2
 80021e0:	e0bfffc5 	stb	r2,-1(fp)

	switch (bus_sample) {                   //start full-speed or low-speed host
 80021e4:	e0bfffc3 	ldbu	r2,-1(fp)
 80021e8:	10c03020 	cmpeqi	r3,r2,192
 80021ec:	18003c1e 	bne	r3,zero,80022e0 <MAX_busprobe+0x128>
 80021f0:	10c03048 	cmpgei	r3,r2,193
 80021f4:	18004d1e 	bne	r3,zero,800232c <MAX_busprobe+0x174>
 80021f8:	10c02020 	cmpeqi	r3,r2,128
 80021fc:	1800061e 	bne	r3,zero,8002218 <MAX_busprobe+0x60>
 8002200:	10c02048 	cmpgei	r3,r2,129
 8002204:	1800491e 	bne	r3,zero,800232c <MAX_busprobe+0x174>
 8002208:	10003826 	beq	r2,zero,80022ec <MAX_busprobe+0x134>
 800220c:	10801020 	cmpeqi	r2,r2,64
 8002210:	10001a1e 	bne	r2,zero,800227c <MAX_busprobe+0xc4>
			MAXreg_wr( rMODE, MODE_FS_HOST); //start full-speed host
			usb_task_state = ( USB_DETACHED_SUBSTATE_WAIT_FOR_DEVICE);
		}
		break;
	} //end switch( bus_sample )
}
 8002214:	00004506 	br	800232c <MAX_busprobe+0x174>
		if (usb_task_state != USB_ATTACHED_SUBSTATE_WAIT_RESET_COMPLETE) { //bus reset causes connection detect interrupt
 8002218:	d0a00803 	ldbu	r2,-32736(gp)
 800221c:	10803fcc 	andi	r2,r2,255
 8002220:	108004e0 	cmpeqi	r2,r2,19
 8002224:	10003e1e 	bne	r2,zero,8002320 <MAX_busprobe+0x168>
			if (!(MAXreg_rd( rMODE) & bmLOWSPEED)) {
 8002228:	01003604 	movi	r4,216
 800222c:	8001f700 	call	8001f70 <MAXreg_rd>
 8002230:	10803fcc 	andi	r2,r2,255
 8002234:	1080008c 	andi	r2,r2,2
 8002238:	1000071e 	bne	r2,zero,8002258 <MAX_busprobe+0xa0>
				MAXreg_wr( rMODE, MODE_FS_HOST);         //start full-speed host
 800223c:	01403244 	movi	r5,201
 8002240:	01003604 	movi	r4,216
 8002244:	8001de80 	call	8001de8 <MAXreg_wr>
				printf("Starting in full speed\n");
 8002248:	01020074 	movhi	r4,2049
 800224c:	211e4f04 	addi	r4,r4,31036
 8002250:	80086500 	call	8008650 <puts>
 8002254:	00000606 	br	8002270 <MAX_busprobe+0xb8>
				MAXreg_wr( rMODE, MODE_LS_HOST);    //start low-speed host
 8002258:	014032c4 	movi	r5,203
 800225c:	01003604 	movi	r4,216
 8002260:	8001de80 	call	8001de8 <MAXreg_wr>
				printf("Starting in low speed\n");
 8002264:	01020074 	movhi	r4,2049
 8002268:	211e5504 	addi	r4,r4,31060
 800226c:	80086500 	call	8008650 <puts>
			usb_task_state = ( USB_STATE_ATTACHED); //signal usb state machine to start attachment sequence
 8002270:	00800404 	movi	r2,16
 8002274:	d0a00805 	stb	r2,-32736(gp)
		break;
 8002278:	00002906 	br	8002320 <MAX_busprobe+0x168>
		if (usb_task_state != USB_ATTACHED_SUBSTATE_WAIT_RESET_COMPLETE) { //bus reset causes connection detect interrupt
 800227c:	d0a00803 	ldbu	r2,-32736(gp)
 8002280:	10803fcc 	andi	r2,r2,255
 8002284:	108004e0 	cmpeqi	r2,r2,19
 8002288:	1000271e 	bne	r2,zero,8002328 <MAX_busprobe+0x170>
			if (!(MAXreg_rd( rMODE) & bmLOWSPEED)) {
 800228c:	01003604 	movi	r4,216
 8002290:	8001f700 	call	8001f70 <MAXreg_rd>
 8002294:	10803fcc 	andi	r2,r2,255
 8002298:	1080008c 	andi	r2,r2,2
 800229c:	1000071e 	bne	r2,zero,80022bc <MAX_busprobe+0x104>
				MAXreg_wr( rMODE, MODE_LS_HOST);   //start low-speed host
 80022a0:	014032c4 	movi	r5,203
 80022a4:	01003604 	movi	r4,216
 80022a8:	8001de80 	call	8001de8 <MAXreg_wr>
				printf("Starting in low speed\n");
 80022ac:	01020074 	movhi	r4,2049
 80022b0:	211e5504 	addi	r4,r4,31060
 80022b4:	80086500 	call	8008650 <puts>
 80022b8:	00000606 	br	80022d4 <MAX_busprobe+0x11c>
				MAXreg_wr( rMODE, MODE_FS_HOST);         //start full-speed host
 80022bc:	01403244 	movi	r5,201
 80022c0:	01003604 	movi	r4,216
 80022c4:	8001de80 	call	8001de8 <MAXreg_wr>
				printf("Starting in full speed\n");
 80022c8:	01020074 	movhi	r4,2049
 80022cc:	211e4f04 	addi	r4,r4,31036
 80022d0:	80086500 	call	8008650 <puts>
			usb_task_state = ( USB_STATE_ATTACHED); //signal usb state machine to start attachment sequence
 80022d4:	00800404 	movi	r2,16
 80022d8:	d0a00805 	stb	r2,-32736(gp)
		break;
 80022dc:	00001206 	br	8002328 <MAX_busprobe+0x170>
		usb_task_state = ( USB_DETACHED_SUBSTATE_ILLEGAL);
 80022e0:	00800104 	movi	r2,4
 80022e4:	d0a00805 	stb	r2,-32736(gp)
		break;
 80022e8:	00001006 	br	800232c <MAX_busprobe+0x174>
		if (!((usb_task_state & USB_STATE_MASK) == USB_STATE_DETACHED)) //if we came here from other than detached state
 80022ec:	d0a00803 	ldbu	r2,-32736(gp)
 80022f0:	10803fcc 	andi	r2,r2,255
 80022f4:	10803c0c 	andi	r2,r2,240
 80022f8:	10000326 	beq	r2,zero,8002308 <MAX_busprobe+0x150>
			usb_task_state = ( USB_DETACHED_SUBSTATE_INITIALIZE); //clear device data structures
 80022fc:	00800044 	movi	r2,1
 8002300:	d0a00805 	stb	r2,-32736(gp)
		break;
 8002304:	00000906 	br	800232c <MAX_busprobe+0x174>
			MAXreg_wr( rMODE, MODE_FS_HOST); //start full-speed host
 8002308:	01403244 	movi	r5,201
 800230c:	01003604 	movi	r4,216
 8002310:	8001de80 	call	8001de8 <MAXreg_wr>
			usb_task_state = ( USB_DETACHED_SUBSTATE_WAIT_FOR_DEVICE);
 8002314:	008000c4 	movi	r2,3
 8002318:	d0a00805 	stb	r2,-32736(gp)
		break;
 800231c:	00000306 	br	800232c <MAX_busprobe+0x174>
		break;
 8002320:	0001883a 	nop
 8002324:	00000106 	br	800232c <MAX_busprobe+0x174>
		break;
 8002328:	0001883a 	nop
}
 800232c:	0001883a 	nop
 8002330:	e037883a 	mov	sp,fp
 8002334:	dfc00117 	ldw	ra,4(sp)
 8002338:	df000017 	ldw	fp,0(sp)
 800233c:	dec00204 	addi	sp,sp,8
 8002340:	f800283a 	ret

08002344 <MAX3421E_init>:
/* MAX3421E initialization after power-on   */
void MAX3421E_init(void) {
 8002344:	defffe04 	addi	sp,sp,-8
 8002348:	dfc00115 	stw	ra,4(sp)
 800234c:	df000015 	stw	fp,0(sp)
 8002350:	d839883a 	mov	fp,sp
	/* Configure full-duplex SPI, interrupt pulse   */
	MAXreg_wr( rPINCTL, (bmFDUPSPI + bmINTLEVEL + bmGPXB)); //Full-duplex SPI, level interrupt, GPX
 8002354:	01400684 	movi	r5,26
 8002358:	01002204 	movi	r4,136
 800235c:	8001de80 	call	8001de8 <MAXreg_wr>
	MAX3421E_reset();                                //stop/start the oscillator
 8002360:	80020f80 	call	80020f8 <MAX3421E_reset>
	/* configure power switch   */
	Vbus_power( OFF);                                      //turn Vbus power off
 8002364:	0009883a 	mov	r4,zero
 8002368:	80021940 	call	8002194 <Vbus_power>

	MAXreg_wr( rGPINIEN, bmGPINIEN7); //enable interrupt on GPIN7 (power switch overload flag)
 800236c:	01402004 	movi	r5,128
 8002370:	01002e04 	movi	r4,184
 8002374:	8001de80 	call	8001de8 <MAXreg_wr>
	Vbus_power( ON);
 8002378:	01000044 	movi	r4,1
 800237c:	80021940 	call	8002194 <Vbus_power>
	/* configure host operation */
	MAXreg_wr( rMODE, bmDPPULLDN | bmDMPULLDN | bmHOST | bmSEPIRQ); // set pull-downs, SOF, Host, Separate GPIN IRQ on GPX
 8002380:	01403444 	movi	r5,209
 8002384:	01003604 	movi	r4,216
 8002388:	8001de80 	call	8001de8 <MAXreg_wr>
	//MAXreg_wr( rHIEN, bmFRAMEIE|bmCONDETIE|bmBUSEVENTIE );                      // enable SOF, connection detection, bus event IRQs
	// adding print statements for debug
	printf("connection detection: %x\n", bmCONDETIE);
 800238c:	01400804 	movi	r5,32
 8002390:	01020074 	movhi	r4,2049
 8002394:	211e5b04 	addi	r4,r4,31084
 8002398:	800852c0 	call	800852c <printf>
	printf("value of reg to be written to (rHIEN): %x\n", MAXreg_rd(rHIEN));
 800239c:	01003404 	movi	r4,208
 80023a0:	8001f700 	call	8001f70 <MAXreg_rd>
 80023a4:	10803fcc 	andi	r2,r2,255
 80023a8:	100b883a 	mov	r5,r2
 80023ac:	01020074 	movhi	r4,2049
 80023b0:	211e6204 	addi	r4,r4,31112
 80023b4:	800852c0 	call	800852c <printf>
	printf("doin a regwrite with value connection detection to register rHIEN...\n");
 80023b8:	01020074 	movhi	r4,2049
 80023bc:	211e6d04 	addi	r4,r4,31156
 80023c0:	80086500 	call	8008650 <puts>
	// vvv this instruction was already here
	MAXreg_wr( rHIEN, bmCONDETIE);                        //connection detection
 80023c4:	01400804 	movi	r5,32
 80023c8:	01003404 	movi	r4,208
 80023cc:	8001de80 	call	8001de8 <MAXreg_wr>
	// vvv more debug
	printf("value in rHIEN after ostensibly performing a write: %x\n", MAXreg_rd(rHIEN));
 80023d0:	01003404 	movi	r4,208
 80023d4:	8001f700 	call	8001f70 <MAXreg_rd>
 80023d8:	10803fcc 	andi	r2,r2,255
 80023dc:	100b883a 	mov	r5,r2
 80023e0:	01020074 	movhi	r4,2049
 80023e4:	211e7f04 	addi	r4,r4,31228
 80023e8:	800852c0 	call	800852c <printf>
	// end debug
	/* HXFRDNIRQ is checked in Dispatch packet function */
	MAXreg_wr(rHCTL, bmSAMPLEBUS);        // update the JSTATUS and KSTATUS bits
 80023ec:	01400104 	movi	r5,4
 80023f0:	01003a04 	movi	r4,232
 80023f4:	8001de80 	call	8001de8 <MAXreg_wr>
	MAX_busprobe();                             //check if anything is connected
 80023f8:	80021b80 	call	80021b8 <MAX_busprobe>
	MAXreg_wr( rHIRQ, bmCONDETIRQ); //clear connection detect interrupt                 
 80023fc:	01400804 	movi	r5,32
 8002400:	01003204 	movi	r4,200
 8002404:	8001de80 	call	8001de8 <MAXreg_wr>
	MAXreg_wr( rCPUCTL, 0x01);                            //enable interrupt pin
 8002408:	01400044 	movi	r5,1
 800240c:	01002004 	movi	r4,128
 8002410:	8001de80 	call	8001de8 <MAXreg_wr>
}
 8002414:	0001883a 	nop
 8002418:	e037883a 	mov	sp,fp
 800241c:	dfc00117 	ldw	ra,4(sp)
 8002420:	df000017 	ldw	fp,0(sp)
 8002424:	dec00204 	addi	sp,sp,8
 8002428:	f800283a 	ret

0800242c <MAX3421E_Task>:

/* MAX3421 state change task and interrupt handler */
void MAX3421E_Task(void) {
 800242c:	defffe04 	addi	sp,sp,-8
 8002430:	dfc00115 	stw	ra,4(sp)
 8002434:	df000015 	stw	fp,0(sp)
 8002438:	d839883a 	mov	fp,sp
	if ( IORD_ALTERA_AVALON_PIO_DATA(USB_IRQ_BASE) == 0) {
 800243c:	00809c37 	ldwio	r2,624(zero)
 8002440:	1000041e 	bne	r2,zero,8002454 <MAX3421E_Task+0x28>
		printf("MAX interrupt\n\r");
 8002444:	01020074 	movhi	r4,2049
 8002448:	211e8d04 	addi	r4,r4,31284
 800244c:	800852c0 	call	800852c <printf>
		MaxIntHandler();
 8002450:	80024880 	call	8002488 <MaxIntHandler>
	}
	if ( IORD_ALTERA_AVALON_PIO_DATA(USB_GPX_BASE) == 1) {
 8002454:	00809837 	ldwio	r2,608(zero)
 8002458:	10800058 	cmpnei	r2,r2,1
 800245c:	1000041e 	bne	r2,zero,8002470 <MAX3421E_Task+0x44>
		printf("GPX interrupt\n\r");
 8002460:	01020074 	movhi	r4,2049
 8002464:	211e9104 	addi	r4,r4,31300
 8002468:	800852c0 	call	800852c <printf>
		MaxGpxHandler();
 800246c:	80025540 	call	8002554 <MaxGpxHandler>
	}
}
 8002470:	0001883a 	nop
 8002474:	e037883a 	mov	sp,fp
 8002478:	dfc00117 	ldw	ra,4(sp)
 800247c:	df000017 	ldw	fp,0(sp)
 8002480:	dec00204 	addi	sp,sp,8
 8002484:	f800283a 	ret

08002488 <MaxIntHandler>:

void MaxIntHandler(void) {
 8002488:	defffd04 	addi	sp,sp,-12
 800248c:	dfc00215 	stw	ra,8(sp)
 8002490:	df000115 	stw	fp,4(sp)
 8002494:	df000104 	addi	fp,sp,4
	BYTE HIRQ;
	BYTE HIRQ_sendback = 0x00;
 8002498:	e03fffc5 	stb	zero,-1(fp)
	HIRQ = MAXreg_rd( rHIRQ);                  //determine interrupt source
 800249c:	01003204 	movi	r4,200
 80024a0:	8001f700 	call	8001f70 <MAXreg_rd>
 80024a4:	e0bfff85 	stb	r2,-2(fp)
	printf("IRQ: %x\n", HIRQ);
 80024a8:	e0bfff83 	ldbu	r2,-2(fp)
 80024ac:	100b883a 	mov	r5,r2
 80024b0:	01020074 	movhi	r4,2049
 80024b4:	211e9504 	addi	r4,r4,31316
 80024b8:	800852c0 	call	800852c <printf>
	if (HIRQ & bmFRAMEIRQ) {                   //->1ms SOF interrupt handler
 80024bc:	e0bfff83 	ldbu	r2,-2(fp)
 80024c0:	1080100c 	andi	r2,r2,64
 80024c4:	10000326 	beq	r2,zero,80024d4 <MaxIntHandler+0x4c>
		HIRQ_sendback |= bmFRAMEIRQ;
 80024c8:	e0bfffc3 	ldbu	r2,-1(fp)
 80024cc:	10801014 	ori	r2,r2,64
 80024d0:	e0bfffc5 	stb	r2,-1(fp)
	}                   //end FRAMEIRQ handling

	if (HIRQ & bmCONDETIRQ) {
 80024d4:	e0bfff83 	ldbu	r2,-2(fp)
 80024d8:	1080080c 	andi	r2,r2,32
 80024dc:	10000426 	beq	r2,zero,80024f0 <MaxIntHandler+0x68>
		MAX_busprobe();
 80024e0:	80021b80 	call	80021b8 <MAX_busprobe>
		HIRQ_sendback |= bmCONDETIRQ;      //set sendback to 1 to clear register
 80024e4:	e0bfffc3 	ldbu	r2,-1(fp)
 80024e8:	10800814 	ori	r2,r2,32
 80024ec:	e0bfffc5 	stb	r2,-1(fp)
	}
	if (HIRQ & bmSNDBAVIRQ) //if the send buffer is clear (previous transfer completed without issue)
 80024f0:	e0bfff83 	ldbu	r2,-2(fp)
 80024f4:	1080020c 	andi	r2,r2,8
 80024f8:	10000326 	beq	r2,zero,8002508 <MaxIntHandler+0x80>
	{
		MAXreg_wr(rSNDBC, 0x00);//clear the send buffer (not really necessary, but clears interrupt)
 80024fc:	000b883a 	mov	r5,zero
 8002500:	01000e04 	movi	r4,56
 8002504:	8001de80 	call	8001de8 <MAXreg_wr>
	}
	if (HIRQ & bmBUSEVENTIRQ) {           //bus event is either reset or suspend
 8002508:	e0bfff83 	ldbu	r2,-2(fp)
 800250c:	1080004c 	andi	r2,r2,1
 8002510:	10000626 	beq	r2,zero,800252c <MaxIntHandler+0xa4>
		usb_task_state++;                       //advance USB task state machine
 8002514:	d0a00803 	ldbu	r2,-32736(gp)
 8002518:	10800044 	addi	r2,r2,1
 800251c:	d0a00805 	stb	r2,-32736(gp)
		HIRQ_sendback |= bmBUSEVENTIRQ;
 8002520:	e0bfffc3 	ldbu	r2,-1(fp)
 8002524:	10800054 	ori	r2,r2,1
 8002528:	e0bfffc5 	stb	r2,-1(fp)
	}
	/* End HIRQ interrupts handling, clear serviced IRQs    */
	MAXreg_wr( rHIRQ, HIRQ_sendback); //write '1' to CONDETIRQ to ack bus state change
 800252c:	e0bfffc3 	ldbu	r2,-1(fp)
 8002530:	100b883a 	mov	r5,r2
 8002534:	01003204 	movi	r4,200
 8002538:	8001de80 	call	8001de8 <MAXreg_wr>
}
 800253c:	0001883a 	nop
 8002540:	e037883a 	mov	sp,fp
 8002544:	dfc00117 	ldw	ra,4(sp)
 8002548:	df000017 	ldw	fp,0(sp)
 800254c:	dec00204 	addi	sp,sp,8
 8002550:	f800283a 	ret

08002554 <MaxGpxHandler>:

void MaxGpxHandler(void) {
 8002554:	defffd04 	addi	sp,sp,-12
 8002558:	dfc00215 	stw	ra,8(sp)
 800255c:	df000115 	stw	fp,4(sp)
 8002560:	df000104 	addi	fp,sp,4
	BYTE GPINIRQ;
	GPINIRQ = MAXreg_rd( rGPINIRQ);            //read both IRQ registers
 8002564:	01002c04 	movi	r4,176
 8002568:	8001f700 	call	8001f70 <MAXreg_rd>
 800256c:	e0bfffc5 	stb	r2,-1(fp)
}
 8002570:	0001883a 	nop
 8002574:	e037883a 	mov	sp,fp
 8002578:	dfc00117 	ldw	ra,4(sp)
 800257c:	df000017 	ldw	fp,0(sp)
 8002580:	dec00204 	addi	sp,sp,8
 8002584:	f800283a 	ret

08002588 <XferCtrlReq>:
/* depending on request. Actual requests are defined as macros                                                                                      */
/* return codes:                */
/* 00       =   success         */
/* 01-0f    =   non-zero HRSLT  */
BYTE XferCtrlReq( BYTE addr, BYTE ep, BYTE bmReqType, BYTE bRequest, BYTE wValLo, BYTE wValHi, WORD wInd, WORD nbytes, BYTE* dataptr )
{
 8002588:	defff104 	addi	sp,sp,-60
 800258c:	dfc00e15 	stw	ra,56(sp)
 8002590:	df000d15 	stw	fp,52(sp)
 8002594:	df000d04 	addi	fp,sp,52
 8002598:	2015883a 	mov	r10,r4
 800259c:	2813883a 	mov	r9,r5
 80025a0:	3011883a 	mov	r8,r6
 80025a4:	e1400217 	ldw	r5,8(fp)
 80025a8:	e1000317 	ldw	r4,12(fp)
 80025ac:	e0c00417 	ldw	r3,16(fp)
 80025b0:	e0800517 	ldw	r2,20(fp)
 80025b4:	500d883a 	mov	r6,r10
 80025b8:	e1bffb05 	stb	r6,-20(fp)
 80025bc:	480d883a 	mov	r6,r9
 80025c0:	e1bffa05 	stb	r6,-24(fp)
 80025c4:	400d883a 	mov	r6,r8
 80025c8:	e1bff905 	stb	r6,-28(fp)
 80025cc:	380d883a 	mov	r6,r7
 80025d0:	e1bff805 	stb	r6,-32(fp)
 80025d4:	e17ff705 	stb	r5,-36(fp)
 80025d8:	e13ff605 	stb	r4,-40(fp)
 80025dc:	e0fff50d 	sth	r3,-44(fp)
 80025e0:	e0bff40d 	sth	r2,-48(fp)
 BOOL direction = FALSE;        //request direction, IN or OUT
 80025e4:	e03fff15 	stw	zero,-4(fp)
 BYTE datastage = 1; //request data stage present or absent
 80025e8:	00800044 	movi	r2,1
 80025ec:	e0bffec5 	stb	r2,-5(fp)
 BYTE rcode;
 SETUP_PKT setup_pkt;
    if( dataptr == NULL ) {
 80025f0:	e0800617 	ldw	r2,24(fp)
 80025f4:	1000011e 	bne	r2,zero,80025fc <XferCtrlReq+0x74>
        datastage = 0;
 80025f8:	e03ffec5 	stb	zero,-5(fp)
    }
    MAXreg_wr( rPERADDR, addr );                    //set peripheral address
 80025fc:	e0bffb03 	ldbu	r2,-20(fp)
 8002600:	100b883a 	mov	r5,r2
 8002604:	01003804 	movi	r4,224
 8002608:	8001de80 	call	8001de8 <MAXreg_wr>
    /* fill in setup packet */
    if( bmReqType & 0x80 ) {
 800260c:	e0bff903 	ldbu	r2,-28(fp)
 8002610:	10803fcc 	andi	r2,r2,255
 8002614:	1080201c 	xori	r2,r2,128
 8002618:	10bfe004 	addi	r2,r2,-128
 800261c:	1000020e 	bge	r2,zero,8002628 <XferCtrlReq+0xa0>
        direction = TRUE;                   		//determine request direction
 8002620:	00800044 	movi	r2,1
 8002624:	e0bfff15 	stw	r2,-4(fp)
    }
    /* fill in setup packet */
    setup_pkt.ReqType_u.bmRequestType = bmReqType;
 8002628:	e0bff903 	ldbu	r2,-28(fp)
 800262c:	e0bffc85 	stb	r2,-14(fp)
    setup_pkt.bRequest = bRequest;
 8002630:	e0bff803 	ldbu	r2,-32(fp)
 8002634:	e0bffcc5 	stb	r2,-13(fp)
    setup_pkt.wVal_u.wValueLo = wValLo;
 8002638:	e0bff703 	ldbu	r2,-36(fp)
 800263c:	e0bffd05 	stb	r2,-12(fp)
    setup_pkt.wVal_u.wValueHi = wValHi;
 8002640:	e0bff603 	ldbu	r2,-40(fp)
 8002644:	e0bffd45 	stb	r2,-11(fp)
    setup_pkt.wIndex = wInd;
 8002648:	e0bff50b 	ldhu	r2,-44(fp)
 800264c:	e0bffd8d 	sth	r2,-10(fp)
    setup_pkt.wLength = nbytes;
 8002650:	e0bff40b 	ldhu	r2,-48(fp)
 8002654:	e0bffe0d 	sth	r2,-8(fp)
    MAXbytes_wr( rSUDFIFO, 8, (BYTE *)&setup_pkt );     //transfer to setup packet FIFO
 8002658:	e0bffc84 	addi	r2,fp,-14
 800265c:	100d883a 	mov	r6,r2
 8002660:	01400204 	movi	r5,8
 8002664:	01000804 	movi	r4,32
 8002668:	8001e8c0 	call	8001e8c <MAXbytes_wr>
    rcode = XferDispatchPkt( tokSETUP, ep );            //dispatch packet
 800266c:	e0bffa03 	ldbu	r2,-24(fp)
 8002670:	100b883a 	mov	r5,r2
 8002674:	01000404 	movi	r4,16
 8002678:	80028480 	call	8002848 <XferDispatchPkt>
 800267c:	e0bffe85 	stb	r2,-6(fp)
    if( rcode ) {                                       //return HRSLT if not zero
 8002680:	e0bffe83 	ldbu	r2,-6(fp)
 8002684:	10000226 	beq	r2,zero,8002690 <XferCtrlReq+0x108>
        return( rcode );
 8002688:	e0bffe83 	ldbu	r2,-6(fp)
 800268c:	00000e06 	br	80026c8 <XferCtrlReq+0x140>
    }
    rcode = ctrl_xfers[ datastage ]( addr, ep, nbytes, dataptr, direction );    //call data stage or no data stage transfer
 8002690:	e0bffec3 	ldbu	r2,-5(fp)
 8002694:	100690ba 	slli	r3,r2,2
 8002698:	d0a00604 	addi	r2,gp,-32744
 800269c:	1885883a 	add	r2,r3,r2
 80026a0:	10800017 	ldw	r2,0(r2)
 80026a4:	e13ffb03 	ldbu	r4,-20(fp)
 80026a8:	e17ffa03 	ldbu	r5,-24(fp)
 80026ac:	e1bff40b 	ldhu	r6,-48(fp)
 80026b0:	e0ffff17 	ldw	r3,-4(fp)
 80026b4:	d8c00015 	stw	r3,0(sp)
 80026b8:	e1c00617 	ldw	r7,24(fp)
 80026bc:	103ee83a 	callr	r2
 80026c0:	e0bffe85 	stb	r2,-6(fp)
    return( rcode );
 80026c4:	e0bffe83 	ldbu	r2,-6(fp)
}
 80026c8:	e037883a 	mov	sp,fp
 80026cc:	dfc00117 	ldw	ra,4(sp)
 80026d0:	df000017 	ldw	fp,0(sp)
 80026d4:	dec00204 	addi	sp,sp,8
 80026d8:	f800283a 	ret

080026dc <XferCtrlData>:
/* Control transfer with data stage */
BYTE XferCtrlData( BYTE addr, BYTE ep, WORD nbytes, BYTE* dataptr, BOOL direction )
{
 80026dc:	defff804 	addi	sp,sp,-32
 80026e0:	dfc00715 	stw	ra,28(sp)
 80026e4:	df000615 	stw	fp,24(sp)
 80026e8:	df000604 	addi	fp,sp,24
 80026ec:	2005883a 	mov	r2,r4
 80026f0:	2809883a 	mov	r4,r5
 80026f4:	3007883a 	mov	r3,r6
 80026f8:	e1fffb15 	stw	r7,-20(fp)
 80026fc:	e0bffe05 	stb	r2,-8(fp)
 8002700:	2005883a 	mov	r2,r4
 8002704:	e0bffd05 	stb	r2,-12(fp)
 8002708:	1805883a 	mov	r2,r3
 800270c:	e0bffc0d 	sth	r2,-16(fp)
  BYTE rcode;

    //MAXreg_wr( rHCTL, bmRCVTOG1 );       //set toggle to DATA1
    if( direction ) {   //IN transfer
 8002710:	e0800217 	ldw	r2,8(fp)
 8002714:	10002626 	beq	r2,zero,80027b0 <XferCtrlData+0xd4>
        devtable[ addr ].epinfo[ ep ].rcvToggle = bmRCVTOG1;
 8002718:	e0bffe03 	ldbu	r2,-8(fp)
 800271c:	100690fa 	slli	r3,r2,3
 8002720:	008200b4 	movhi	r2,2050
 8002724:	1885883a 	add	r2,r3,r2
 8002728:	10eef717 	ldw	r3,-17444(r2)
 800272c:	e0bffd03 	ldbu	r2,-12(fp)
 8002730:	100490fa 	slli	r2,r2,3
 8002734:	1885883a 	add	r2,r3,r2
 8002738:	00c00804 	movi	r3,32
 800273c:	10c00185 	stb	r3,6(r2)
        rcode = XferInTransfer( addr, ep, nbytes, dataptr, devtable[ addr ].epinfo[ ep ].MaxPktSize );
 8002740:	e13ffe03 	ldbu	r4,-8(fp)
 8002744:	e17ffd03 	ldbu	r5,-12(fp)
 8002748:	e1bffc0b 	ldhu	r6,-16(fp)
 800274c:	e0bffe03 	ldbu	r2,-8(fp)
 8002750:	100690fa 	slli	r3,r2,3
 8002754:	008200b4 	movhi	r2,2050
 8002758:	1885883a 	add	r2,r3,r2
 800275c:	10eef717 	ldw	r3,-17444(r2)
 8002760:	e0bffd03 	ldbu	r2,-12(fp)
 8002764:	100490fa 	slli	r2,r2,3
 8002768:	1885883a 	add	r2,r3,r2
 800276c:	1080008b 	ldhu	r2,2(r2)
 8002770:	10803fcc 	andi	r2,r2,255
 8002774:	d8800015 	stw	r2,0(sp)
 8002778:	e1fffb17 	ldw	r7,-20(fp)
 800277c:	80029c80 	call	80029c8 <XferInTransfer>
 8002780:	e0bfffc5 	stb	r2,-1(fp)
        if( rcode ) {
 8002784:	e0bfffc3 	ldbu	r2,-1(fp)
 8002788:	10000226 	beq	r2,zero,8002794 <XferCtrlData+0xb8>
        return( rcode );
 800278c:	e0bfffc3 	ldbu	r2,-1(fp)
 8002790:	00000806 	br	80027b4 <XferCtrlData+0xd8>
        }
        rcode = XferDispatchPkt( tokOUTHS, ep );
 8002794:	e0bffd03 	ldbu	r2,-12(fp)
 8002798:	100b883a 	mov	r5,r2
 800279c:	01002804 	movi	r4,160
 80027a0:	80028480 	call	8002848 <XferDispatchPkt>
 80027a4:	e0bfffc5 	stb	r2,-1(fp)
        return( rcode );
 80027a8:	e0bfffc3 	ldbu	r2,-1(fp)
 80027ac:	00000106 	br	80027b4 <XferCtrlData+0xd8>
    }
    else {              //OUT not implemented
        return( 0xff );
 80027b0:	00bfffc4 	movi	r2,-1
    }
}
 80027b4:	e037883a 	mov	sp,fp
 80027b8:	dfc00117 	ldw	ra,4(sp)
 80027bc:	df000017 	ldw	fp,0(sp)
 80027c0:	dec00204 	addi	sp,sp,8
 80027c4:	f800283a 	ret

080027c8 <XferCtrlND>:
/* Control transfer with status stage and no data stage */
BYTE XferCtrlND( BYTE addr, BYTE ep, WORD nbytes, BYTE* dataptr, BOOL direction )
{
 80027c8:	defff904 	addi	sp,sp,-28
 80027cc:	dfc00615 	stw	ra,24(sp)
 80027d0:	df000515 	stw	fp,20(sp)
 80027d4:	df000504 	addi	fp,sp,20
 80027d8:	2005883a 	mov	r2,r4
 80027dc:	2809883a 	mov	r4,r5
 80027e0:	3007883a 	mov	r3,r6
 80027e4:	e1fffb15 	stw	r7,-20(fp)
 80027e8:	e0bffe05 	stb	r2,-8(fp)
 80027ec:	2005883a 	mov	r2,r4
 80027f0:	e0bffd05 	stb	r2,-12(fp)
 80027f4:	1805883a 	mov	r2,r3
 80027f8:	e0bffc0d 	sth	r2,-16(fp)
  BYTE rcode;
    if( direction ) { //GET
 80027fc:	e0800217 	ldw	r2,8(fp)
 8002800:	10000626 	beq	r2,zero,800281c <XferCtrlND+0x54>
        rcode = XferDispatchPkt( tokOUTHS, ep );
 8002804:	e0bffd03 	ldbu	r2,-12(fp)
 8002808:	100b883a 	mov	r5,r2
 800280c:	01002804 	movi	r4,160
 8002810:	80028480 	call	8002848 <XferDispatchPkt>
 8002814:	e0bfffc5 	stb	r2,-1(fp)
 8002818:	00000506 	br	8002830 <XferCtrlND+0x68>
    }
    else {
        rcode = XferDispatchPkt( tokINHS, ep );
 800281c:	e0bffd03 	ldbu	r2,-12(fp)
 8002820:	100b883a 	mov	r5,r2
 8002824:	01002004 	movi	r4,128
 8002828:	80028480 	call	8002848 <XferDispatchPkt>
 800282c:	e0bfffc5 	stb	r2,-1(fp)
    }
    return( rcode );
 8002830:	e0bfffc3 	ldbu	r2,-1(fp)
}
 8002834:	e037883a 	mov	sp,fp
 8002838:	dfc00117 	ldw	ra,4(sp)
 800283c:	df000017 	ldw	fp,0(sp)
 8002840:	dec00204 	addi	sp,sp,8
 8002844:	f800283a 	ret

08002848 <XferDispatchPkt>:
/* Result code: 0 success, nonzero = error condition                                                */
/* If NAK, tries to re-send up to USB_NAK_LIMIT times                                               */
/* If bus timeout, re-sends up to USB_RETRY_LIMIT times                                             */
/* return codes 0x00-0x0f are HRSLT( 0x00 being success ), 0xff means timeout                       */
BYTE XferDispatchPkt( BYTE token, BYTE ep )
{
 8002848:	defff904 	addi	sp,sp,-28
 800284c:	dfc00615 	stw	ra,24(sp)
 8002850:	df000515 	stw	fp,20(sp)
 8002854:	df000504 	addi	fp,sp,20
 8002858:	2005883a 	mov	r2,r4
 800285c:	2807883a 	mov	r3,r5
 8002860:	e0bffc05 	stb	r2,-16(fp)
 8002864:	1805883a 	mov	r2,r3
 8002868:	e0bffb05 	stb	r2,-20(fp)
 * alt_nticks() returns the elapsed number of system clock ticks since reset.
 */

static ALT_INLINE alt_u32 ALT_ALWAYS_INLINE alt_nticks (void)
{
  return _alt_nticks;
 800286c:	d0a74517 	ldw	r2,-25324(gp)
 DWORD timeout = (alt_nticks()*1000)/alt_ticks_per_second() + USB_XFER_TIMEOUT;
 8002870:	0140fa04 	movi	r5,1000
 8002874:	1009883a 	mov	r4,r2
 8002878:	800514c0 	call	800514c <__mulsi3>
 800287c:	1007883a 	mov	r3,r2
  return _alt_tick_rate;
 8002880:	d0a74417 	ldw	r2,-25328(gp)
 8002884:	100b883a 	mov	r5,r2
 8002888:	1809883a 	mov	r4,r3
 800288c:	800508c0 	call	800508c <__udivsi3>
 8002890:	1084e204 	addi	r2,r2,5000
 8002894:	e0bffe15 	stw	r2,-8(fp)
 BYTE tmpdata;
 BYTE rcode;
 char retry_count = 0;
 8002898:	e03fff85 	stb	zero,-2(fp)
 BYTE nak_count = 0;
 800289c:	e03fff45 	stb	zero,-3(fp)

    while( 1 ) {
        MAXreg_wr( rHXFR, ( token|ep ));            //launch the transfer
 80028a0:	e0fffc03 	ldbu	r3,-16(fp)
 80028a4:	e0bffb03 	ldbu	r2,-20(fp)
 80028a8:	1884b03a 	or	r2,r3,r2
 80028ac:	10803fcc 	andi	r2,r2,255
 80028b0:	100b883a 	mov	r5,r2
 80028b4:	01003c04 	movi	r4,240
 80028b8:	8001de80 	call	8001de8 <MAXreg_wr>
        rcode = 0xff;
 80028bc:	00bfffc4 	movi	r2,-1
 80028c0:	e0bfffc5 	stb	r2,-1(fp)
        while( (alt_nticks()*1000)/alt_ticks_per_second() < timeout ) {
 80028c4:	00000d06 	br	80028fc <XferDispatchPkt+0xb4>
            tmpdata = MAXreg_rd( rHIRQ );
 80028c8:	01003204 	movi	r4,200
 80028cc:	8001f700 	call	8001f70 <MAXreg_rd>
 80028d0:	e0bffdc5 	stb	r2,-9(fp)
            if( tmpdata & bmHXFRDNIRQ ) {
 80028d4:	e0bffdc3 	ldbu	r2,-9(fp)
 80028d8:	10803fcc 	andi	r2,r2,255
 80028dc:	1080201c 	xori	r2,r2,128
 80028e0:	10bfe004 	addi	r2,r2,-128
 80028e4:	1000050e 	bge	r2,zero,80028fc <XferDispatchPkt+0xb4>
                MAXreg_wr( rHIRQ, bmHXFRDNIRQ );    //clear the interrupt
 80028e8:	01402004 	movi	r5,128
 80028ec:	01003204 	movi	r4,200
 80028f0:	8001de80 	call	8001de8 <MAXreg_wr>
                rcode = 0x00;
 80028f4:	e03fffc5 	stb	zero,-1(fp)
                break;
 80028f8:	00000c06 	br	800292c <XferDispatchPkt+0xe4>
  return _alt_nticks;
 80028fc:	d0a74517 	ldw	r2,-25324(gp)
        while( (alt_nticks()*1000)/alt_ticks_per_second() < timeout ) {
 8002900:	0140fa04 	movi	r5,1000
 8002904:	1009883a 	mov	r4,r2
 8002908:	800514c0 	call	800514c <__mulsi3>
 800290c:	1007883a 	mov	r3,r2
  return _alt_tick_rate;
 8002910:	d0a74417 	ldw	r2,-25328(gp)
 8002914:	100b883a 	mov	r5,r2
 8002918:	1809883a 	mov	r4,r3
 800291c:	800508c0 	call	800508c <__udivsi3>
 8002920:	1007883a 	mov	r3,r2
 8002924:	e0bffe17 	ldw	r2,-8(fp)
 8002928:	18bfe736 	bltu	r3,r2,80028c8 <XferDispatchPkt+0x80>
            }
        }
        if( rcode != 0x00 ) {               //exit if timeout
 800292c:	e0bfffc3 	ldbu	r2,-1(fp)
 8002930:	10000226 	beq	r2,zero,800293c <XferDispatchPkt+0xf4>
            return( rcode );
 8002934:	e0bfffc3 	ldbu	r2,-1(fp)
 8002938:	00001e06 	br	80029b4 <XferDispatchPkt+0x16c>
        }
        rcode = ( MAXreg_rd( rHRSL ) & 0x0f );
 800293c:	01003e04 	movi	r4,248
 8002940:	8001f700 	call	8001f70 <MAXreg_rd>
 8002944:	108003cc 	andi	r2,r2,15
 8002948:	e0bfffc5 	stb	r2,-1(fp)
        if( rcode == hrNAK ) {
 800294c:	e0bfffc3 	ldbu	r2,-1(fp)
 8002950:	10800118 	cmpnei	r2,r2,4
 8002954:	1000071e 	bne	r2,zero,8002974 <XferDispatchPkt+0x12c>
            nak_count++;
 8002958:	e0bfff43 	ldbu	r2,-3(fp)
 800295c:	10800044 	addi	r2,r2,1
 8002960:	e0bfff45 	stb	r2,-3(fp)
            if( nak_count == USB_NAK_LIMIT ) {
 8002964:	e0bfff43 	ldbu	r2,-3(fp)
 8002968:	10803218 	cmpnei	r2,r2,200
 800296c:	10000b1e 	bne	r2,zero,800299c <XferDispatchPkt+0x154>
                break;
 8002970:	00000f06 	br	80029b0 <XferDispatchPkt+0x168>
            }
            else {
                continue;
            }
        }
        if( rcode == hrTIMEOUT ) {
 8002974:	e0bfffc3 	ldbu	r2,-1(fp)
 8002978:	10800398 	cmpnei	r2,r2,14
 800297c:	1000091e 	bne	r2,zero,80029a4 <XferDispatchPkt+0x15c>
            retry_count++;
 8002980:	e0bfff83 	ldbu	r2,-2(fp)
 8002984:	10800044 	addi	r2,r2,1
 8002988:	e0bfff85 	stb	r2,-2(fp)
            if( retry_count == USB_RETRY_LIMIT ) {
 800298c:	e0bfff87 	ldb	r2,-2(fp)
 8002990:	108000d8 	cmpnei	r2,r2,3
 8002994:	10000526 	beq	r2,zero,80029ac <XferDispatchPkt+0x164>
                break;
            }
            else {
                continue;
 8002998:	00000106 	br	80029a0 <XferDispatchPkt+0x158>
                continue;
 800299c:	0001883a 	nop
        MAXreg_wr( rHXFR, ( token|ep ));            //launch the transfer
 80029a0:	003fbf06 	br	80028a0 <XferDispatchPkt+0x58>
            }
        }
        else break;
 80029a4:	0001883a 	nop
 80029a8:	00000106 	br	80029b0 <XferDispatchPkt+0x168>
                break;
 80029ac:	0001883a 	nop
    }//while( 1 )
    return( rcode );
 80029b0:	e0bfffc3 	ldbu	r2,-1(fp)
}
 80029b4:	e037883a 	mov	sp,fp
 80029b8:	dfc00117 	ldw	ra,4(sp)
 80029bc:	df000017 	ldw	fp,0(sp)
 80029c0:	dec00204 	addi	sp,sp,8
 80029c4:	f800283a 	ret

080029c8 <XferInTransfer>:
/* IN transfer to arbitrary endpoint. Assumes PERADDR is set. Handles multiple packets if necessary. Transfers 'nbytes' bytes.
    Keep sending INs and writes data to memory area pointed by 'data' */
/* rcode 0 if no errors. rcode 01-0f is relayed from prvXferDispatchPkt(). Rcode f0 means RCVDAVIRQ error,
            fe USB xfer timeout */
BYTE XferInTransfer( BYTE addr/* not sure if it's necessary */, BYTE ep, WORD nbytes, BYTE* data, BYTE maxpktsize )
{
 80029c8:	defff804 	addi	sp,sp,-32
 80029cc:	dfc00715 	stw	ra,28(sp)
 80029d0:	df000615 	stw	fp,24(sp)
 80029d4:	df000604 	addi	fp,sp,24
 80029d8:	2007883a 	mov	r3,r4
 80029dc:	3009883a 	mov	r4,r6
 80029e0:	e1fffb15 	stw	r7,-20(fp)
 80029e4:	e0800217 	ldw	r2,8(fp)
 80029e8:	e0fffe05 	stb	r3,-8(fp)
 80029ec:	2807883a 	mov	r3,r5
 80029f0:	e0fffd05 	stb	r3,-12(fp)
 80029f4:	2007883a 	mov	r3,r4
 80029f8:	e0fffc0d 	sth	r3,-16(fp)
 80029fc:	e0bffa05 	stb	r2,-24(fp)
 BYTE rcode;
 BYTE i;
 BYTE tmpbyte;
 BYTE pktsize;
 WORD xfrlen = 0;
 8002a00:	e03fff8d 	sth	zero,-2(fp)
    MAXreg_wr( rHCTL, devtable[ addr ].epinfo[ ep ].rcvToggle );    //set toggle value
 8002a04:	e0bffe03 	ldbu	r2,-8(fp)
 8002a08:	100690fa 	slli	r3,r2,3
 8002a0c:	008200b4 	movhi	r2,2050
 8002a10:	1885883a 	add	r2,r3,r2
 8002a14:	10eef717 	ldw	r3,-17444(r2)
 8002a18:	e0bffd03 	ldbu	r2,-12(fp)
 8002a1c:	100490fa 	slli	r2,r2,3
 8002a20:	1885883a 	add	r2,r3,r2
 8002a24:	10800183 	ldbu	r2,6(r2)
 8002a28:	10803fcc 	andi	r2,r2,255
 8002a2c:	100b883a 	mov	r5,r2
 8002a30:	01003a04 	movi	r4,232
 8002a34:	8001de80 	call	8001de8 <MAXreg_wr>
    while( 1 ) { // use a 'return' to exit this loop
        rcode = XferDispatchPkt( tokIN, ep );           //IN packet to EP-'endpoint'. Function takes care of NAKS.
 8002a38:	e0bffd03 	ldbu	r2,-12(fp)
 8002a3c:	100b883a 	mov	r5,r2
 8002a40:	0009883a 	mov	r4,zero
 8002a44:	80028480 	call	8002848 <XferDispatchPkt>
 8002a48:	e0bfff45 	stb	r2,-3(fp)
        if( rcode ) {
 8002a4c:	e0bfff43 	ldbu	r2,-3(fp)
 8002a50:	10000226 	beq	r2,zero,8002a5c <XferInTransfer+0x94>
            return( rcode );                            //should be 0, indicating ACK. Else return error code.
 8002a54:	e0bfff43 	ldbu	r2,-3(fp)
 8002a58:	00003806 	br	8002b3c <XferInTransfer+0x174>
        }
        /* check for RCVDAVIRQ and generate error if not present */
        /* the only case when absence of RCVDAVIRQ makes sense is when toggle error occurred. Need to add handling for that */
        if(( MAXreg_rd( rHIRQ ) & bmRCVDAVIRQ ) == 0 ) {
 8002a5c:	01003204 	movi	r4,200
 8002a60:	8001f700 	call	8001f70 <MAXreg_rd>
 8002a64:	10803fcc 	andi	r2,r2,255
 8002a68:	1080010c 	andi	r2,r2,4
 8002a6c:	1000021e 	bne	r2,zero,8002a78 <XferInTransfer+0xb0>
            return ( 0xf0 );                            //receive error
 8002a70:	00bffc04 	movi	r2,-16
 8002a74:	00003106 	br	8002b3c <XferInTransfer+0x174>
        }
        pktsize = MAXreg_rd( rRCVBC );                  //number of received bytes
 8002a78:	01000c04 	movi	r4,48
 8002a7c:	8001f700 	call	8001f70 <MAXreg_rd>
 8002a80:	e0bfff05 	stb	r2,-4(fp)
        //printf("pktsize: %d\n", pktsize);
        data = MAXbytes_rd( rRCVFIFO, pktsize, data );
 8002a84:	e0bfff03 	ldbu	r2,-4(fp)
 8002a88:	e1bffb17 	ldw	r6,-20(fp)
 8002a8c:	100b883a 	mov	r5,r2
 8002a90:	01000204 	movi	r4,8
 8002a94:	80020100 	call	8002010 <MAXbytes_rd>
 8002a98:	e0bffb15 	stw	r2,-20(fp)
        MAXreg_wr( rHIRQ, bmRCVDAVIRQ );                // Clear the IRQ & free the buffer
 8002a9c:	01400104 	movi	r5,4
 8002aa0:	01003204 	movi	r4,200
 8002aa4:	8001de80 	call	8001de8 <MAXreg_wr>
        xfrlen += pktsize;                              // add this packet's byte count to total transfer length
 8002aa8:	e0bfff03 	ldbu	r2,-4(fp)
 8002aac:	e0ffff8b 	ldhu	r3,-2(fp)
 8002ab0:	1885883a 	add	r2,r3,r2
 8002ab4:	e0bfff8d 	sth	r2,-2(fp)
        /* The transfer is complete under two conditions:           */
        /* 1. The device sent a short packet (L.T. maxPacketSize)   */
        /* 2. 'nbytes' have been transferred.                       */
        if (( pktsize < maxpktsize ) || (xfrlen >= nbytes )) {    // have we transferred 'nbytes' bytes?
 8002ab8:	e0ffff03 	ldbu	r3,-4(fp)
 8002abc:	e0bffa03 	ldbu	r2,-24(fp)
 8002ac0:	18800336 	bltu	r3,r2,8002ad0 <XferInTransfer+0x108>
 8002ac4:	e0ffff8b 	ldhu	r3,-2(fp)
 8002ac8:	e0bffc0b 	ldhu	r2,-16(fp)
 8002acc:	18bfda36 	bltu	r3,r2,8002a38 <XferInTransfer+0x70>
            if( MAXreg_rd( rHRSL ) & bmRCVTOGRD ) {                 //save toggle value
 8002ad0:	01003e04 	movi	r4,248
 8002ad4:	8001f700 	call	8001f70 <MAXreg_rd>
 8002ad8:	10803fcc 	andi	r2,r2,255
 8002adc:	1080040c 	andi	r2,r2,16
 8002ae0:	10000b26 	beq	r2,zero,8002b10 <XferInTransfer+0x148>
                devtable[ addr ].epinfo[ ep ].rcvToggle = bmRCVTOG1;
 8002ae4:	e0bffe03 	ldbu	r2,-8(fp)
 8002ae8:	100690fa 	slli	r3,r2,3
 8002aec:	008200b4 	movhi	r2,2050
 8002af0:	1885883a 	add	r2,r3,r2
 8002af4:	10eef717 	ldw	r3,-17444(r2)
 8002af8:	e0bffd03 	ldbu	r2,-12(fp)
 8002afc:	100490fa 	slli	r2,r2,3
 8002b00:	1885883a 	add	r2,r3,r2
 8002b04:	00c00804 	movi	r3,32
 8002b08:	10c00185 	stb	r3,6(r2)
 8002b0c:	00000a06 	br	8002b38 <XferInTransfer+0x170>
            }
            else {
                devtable[ addr ].epinfo[ ep ].rcvToggle = bmRCVTOG0;
 8002b10:	e0bffe03 	ldbu	r2,-8(fp)
 8002b14:	100690fa 	slli	r3,r2,3
 8002b18:	008200b4 	movhi	r2,2050
 8002b1c:	1885883a 	add	r2,r3,r2
 8002b20:	10eef717 	ldw	r3,-17444(r2)
 8002b24:	e0bffd03 	ldbu	r2,-12(fp)
 8002b28:	100490fa 	slli	r2,r2,3
 8002b2c:	1885883a 	add	r2,r3,r2
 8002b30:	00c00404 	movi	r3,16
 8002b34:	10c00185 	stb	r3,6(r2)
            }
            return( 0 );
 8002b38:	0005883a 	mov	r2,zero
        }
  }//while( 1 )
}
 8002b3c:	e037883a 	mov	sp,fp
 8002b40:	dfc00117 	ldw	ra,4(sp)
 8002b44:	df000017 	ldw	fp,0(sp)
 8002b48:	dec00204 	addi	sp,sp,8
 8002b4c:	f800283a 	ret

08002b50 <USB_init>:
/* initialization of USB data structures */
void USB_init( void )
{
 8002b50:	defffe04 	addi	sp,sp,-8
 8002b54:	df000115 	stw	fp,4(sp)
 8002b58:	df000104 	addi	fp,sp,4
  BYTE i;
    for( i = 0; i < ( USB_NUMDEVICES + 1 ); i++ ) {
 8002b5c:	e03fffc5 	stb	zero,-1(fp)
 8002b60:	00000d06 	br	8002b98 <USB_init+0x48>
        devtable[ i ].epinfo = NULL;       //clear device table
 8002b64:	e0bfffc3 	ldbu	r2,-1(fp)
 8002b68:	100690fa 	slli	r3,r2,3
 8002b6c:	008200b4 	movhi	r2,2050
 8002b70:	1885883a 	add	r2,r3,r2
 8002b74:	102ef715 	stw	zero,-17444(r2)
        devtable[ i ].devclass = 0;
 8002b78:	e0bfffc3 	ldbu	r2,-1(fp)
 8002b7c:	100690fa 	slli	r3,r2,3
 8002b80:	008200b4 	movhi	r2,2050
 8002b84:	1885883a 	add	r2,r3,r2
 8002b88:	102ef805 	stb	zero,-17440(r2)
    for( i = 0; i < ( USB_NUMDEVICES + 1 ); i++ ) {
 8002b8c:	e0bfffc3 	ldbu	r2,-1(fp)
 8002b90:	10800044 	addi	r2,r2,1
 8002b94:	e0bfffc5 	stb	r2,-1(fp)
 8002b98:	e0bfffc3 	ldbu	r2,-1(fp)
 8002b9c:	10800270 	cmpltui	r2,r2,9
 8002ba0:	103ff01e 	bne	r2,zero,8002b64 <USB_init+0x14>
    }
    devtable[ 0 ].epinfo = &dev0ep;  //set single ep for uninitialized device
 8002ba4:	d0e73704 	addi	r3,gp,-25380
 8002ba8:	008200b4 	movhi	r2,2050
 8002bac:	10eef715 	stw	r3,-17444(r2)
    dev0ep.MaxPktSize = 0;
 8002bb0:	d027378d 	sth	zero,-25378(gp)
    dev0ep.sndToggle = bmSNDTOG0;   //set DATA0/1 toggles to 0
 8002bb4:	00801004 	movi	r2,64
 8002bb8:	d0a73845 	stb	r2,-25375(gp)
    dev0ep.rcvToggle = bmRCVTOG0;
 8002bbc:	00800404 	movi	r2,16
 8002bc0:	d0a73885 	stb	r2,-25374(gp)
}
 8002bc4:	0001883a 	nop
 8002bc8:	e037883a 	mov	sp,fp
 8002bcc:	df000017 	ldw	fp,0(sp)
 8002bd0:	dec00104 	addi	sp,sp,4
 8002bd4:	f800283a 	ret

08002bd8 <USB_Task>:
/* error codes: 01-0f HRSLT        */
/* ff - unsupported device         */
/* fe - no address available       */
/* fd - no client driver available */
void USB_Task( void )
{
 8002bd8:	deffb204 	addi	sp,sp,-312
 8002bdc:	dfc04d15 	stw	ra,308(sp)
 8002be0:	df004c15 	stw	fp,304(sp)
 8002be4:	dc004b15 	stw	r16,300(sp)
 8002be8:	df004c04 	addi	fp,sp,304
 USB_DEVICE_DESCRIPTOR buf;

 BYTE rcode, tmpdata;
 BYTE i;

    switch( usb_task_state & USB_STATE_MASK ) {
 8002bec:	d0a00803 	ldbu	r2,-32736(gp)
 8002bf0:	10803fcc 	andi	r2,r2,255
 8002bf4:	10803c0c 	andi	r2,r2,240
 8002bf8:	10c03fe0 	cmpeqi	r3,r2,255
 8002bfc:	1801781e 	bne	r3,zero,80031e0 <USB_Task+0x608>
 8002c00:	10c04008 	cmpgei	r3,r2,256
 8002c04:	1801781e 	bne	r3,zero,80031e8 <USB_Task+0x610>
 8002c08:	10c01020 	cmpeqi	r3,r2,64
 8002c0c:	1801781e 	bne	r3,zero,80031f0 <USB_Task+0x618>
 8002c10:	10c01048 	cmpgei	r3,r2,65
 8002c14:	1801741e 	bne	r3,zero,80031e8 <USB_Task+0x610>
 8002c18:	10c00c20 	cmpeqi	r3,r2,48
 8002c1c:	1801491e 	bne	r3,zero,8003144 <USB_Task+0x56c>
 8002c20:	10c00c48 	cmpgei	r3,r2,49
 8002c24:	1801701e 	bne	r3,zero,80031e8 <USB_Task+0x610>
 8002c28:	10c00820 	cmpeqi	r3,r2,32
 8002c2c:	18010a1e 	bne	r3,zero,8003058 <USB_Task+0x480>
 8002c30:	10c00848 	cmpgei	r3,r2,33
 8002c34:	18016c1e 	bne	r3,zero,80031e8 <USB_Task+0x610>
 8002c38:	10000326 	beq	r2,zero,8002c48 <USB_Task+0x70>
 8002c3c:	10800420 	cmpeqi	r2,r2,16
 8002c40:	1000161e 	bne	r2,zero,8002c9c <USB_Task+0xc4>
        case( USB_STATE_ERROR ):
            //vTaskDelay( LED_RATE ); //stay here if error
            break;//( USB_STATE_ERROR )
        default:
            //Should never get here
            break;
 8002c44:	00016806 	br	80031e8 <USB_Task+0x610>
            switch( usb_task_state ) {
 8002c48:	d0a00803 	ldbu	r2,-32736(gp)
 8002c4c:	10803fcc 	andi	r2,r2,255
 8002c50:	10c00120 	cmpeqi	r3,r2,4
 8002c54:	18000f1e 	bne	r3,zero,8002c94 <USB_Task+0xbc>
 8002c58:	10c00148 	cmpgei	r3,r2,5
 8002c5c:	1801661e 	bne	r3,zero,80031f8 <USB_Task+0x620>
 8002c60:	10c00060 	cmpeqi	r3,r2,1
 8002c64:	1800031e 	bne	r3,zero,8002c74 <USB_Task+0x9c>
 8002c68:	108000e0 	cmpeqi	r2,r2,3
 8002c6c:	1000051e 	bne	r2,zero,8002c84 <USB_Task+0xac>
            break;//( USB_STATE_DETACHED ):
 8002c70:	00016106 	br	80031f8 <USB_Task+0x620>
                    USB_init();
 8002c74:	8002b500 	call	8002b50 <USB_init>
                    usb_task_state = USB_DETACHED_SUBSTATE_WAIT_FOR_DEVICE;
 8002c78:	008000c4 	movi	r2,3
 8002c7c:	d0a00805 	stb	r2,-32736(gp)
                    break;
 8002c80:	00000506 	br	8002c98 <USB_Task+0xc0>
                    MAXreg_wr(rHCTL,bmSAMPLEBUS);
 8002c84:	01400104 	movi	r5,4
 8002c88:	01003a04 	movi	r4,232
 8002c8c:	8001de80 	call	8001de8 <MAXreg_wr>
                    break;
 8002c90:	00000106 	br	8002c98 <USB_Task+0xc0>
                    break;
 8002c94:	0001883a 	nop
            break;//( USB_STATE_DETACHED ):
 8002c98:	00015706 	br	80031f8 <USB_Task+0x620>
            switch( usb_task_state ) {
 8002c9c:	d0a00803 	ldbu	r2,-32736(gp)
 8002ca0:	10803fcc 	andi	r2,r2,255
 8002ca4:	10bffc04 	addi	r2,r2,-16
 8002ca8:	10c001a8 	cmpgeui	r3,r2,6
 8002cac:	1801541e 	bne	r3,zero,8003200 <USB_Task+0x628>
 8002cb0:	100690ba 	slli	r3,r2,2
 8002cb4:	00820034 	movhi	r2,2048
 8002cb8:	1885883a 	add	r2,r3,r2
 8002cbc:	108b3117 	ldw	r2,11460(r2)
 8002cc0:	1000683a 	jmp	r2
 8002cc4:	08002cdc 	xori	zero,at,179
 8002cc8:	08002d14 	ori	zero,at,180
 8002ccc:	08002d50 	cmplti	zero,at,181
 8002cd0:	08002d74 	orhi	zero,at,181
 8002cd4:	08002db4 	orhi	zero,at,182
 8002cd8:	08002dc8 	cmpgei	zero,at,183
  return _alt_nticks;
 8002cdc:	d0a74517 	ldw	r2,-25324(gp)
                    usb_delay = (alt_nticks()*1000)/alt_ticks_per_second() + 200;           //initial settle 200ms
 8002ce0:	0140fa04 	movi	r5,1000
 8002ce4:	1009883a 	mov	r4,r2
 8002ce8:	800514c0 	call	800514c <__mulsi3>
 8002cec:	1007883a 	mov	r3,r2
  return _alt_tick_rate;
 8002cf0:	d0a74417 	ldw	r2,-25328(gp)
 8002cf4:	100b883a 	mov	r5,r2
 8002cf8:	1809883a 	mov	r4,r3
 8002cfc:	800508c0 	call	800508c <__udivsi3>
 8002d00:	10803204 	addi	r2,r2,200
 8002d04:	d0a73a15 	stw	r2,-25368(gp)
                    usb_task_state = USB_ATTACHED_SUBSTATE_SETTLE;
 8002d08:	00800444 	movi	r2,17
 8002d0c:	d0a00805 	stb	r2,-32736(gp)
                    break;//case( USB_STATE_ATTACHED )
 8002d10:	0000d006 	br	8003054 <USB_Task+0x47c>
  return _alt_nticks;
 8002d14:	d0a74517 	ldw	r2,-25324(gp)
                    if( (alt_nticks()*1000)/alt_ticks_per_second() > usb_delay ) {
 8002d18:	0140fa04 	movi	r5,1000
 8002d1c:	1009883a 	mov	r4,r2
 8002d20:	800514c0 	call	800514c <__mulsi3>
 8002d24:	1007883a 	mov	r3,r2
  return _alt_tick_rate;
 8002d28:	d0a74417 	ldw	r2,-25328(gp)
 8002d2c:	100b883a 	mov	r5,r2
 8002d30:	1809883a 	mov	r4,r3
 8002d34:	800508c0 	call	800508c <__udivsi3>
 8002d38:	1007883a 	mov	r3,r2
 8002d3c:	d0a73a17 	ldw	r2,-25368(gp)
 8002d40:	10c0c12e 	bgeu	r2,r3,8003048 <USB_Task+0x470>
                        usb_task_state = USB_ATTACHED_SUBSTATE_RESET_DEVICE;
 8002d44:	00800484 	movi	r2,18
 8002d48:	d0a00805 	stb	r2,-32736(gp)
                    break;//case( USB_ATTACHED_SUBSTATE_SETTLE )
 8002d4c:	0000be06 	br	8003048 <USB_Task+0x470>
                    MAXreg_wr( rHIRQ, bmBUSEVENTIRQ );                               //clear bus event IRQ
 8002d50:	01400044 	movi	r5,1
 8002d54:	01003204 	movi	r4,200
 8002d58:	8001de80 	call	8001de8 <MAXreg_wr>
                    MAXreg_wr( rHCTL, bmBUSRST );                                    //issue bus reset
 8002d5c:	01400044 	movi	r5,1
 8002d60:	01003a04 	movi	r4,232
 8002d64:	8001de80 	call	8001de8 <MAXreg_wr>
                    usb_task_state = USB_ATTACHED_SUBSTATE_WAIT_RESET_COMPLETE;
 8002d68:	008004c4 	movi	r2,19
 8002d6c:	d0a00805 	stb	r2,-32736(gp)
                    break;//case( USB_ATTACHED_SUBSTATE_RESET_DEVICE )
 8002d70:	0000b806 	br	8003054 <USB_Task+0x47c>
                    if(( MAXreg_rd( rHCTL ) & bmBUSRST ) == 0 ) {
 8002d74:	01003a04 	movi	r4,232
 8002d78:	8001f700 	call	8001f70 <MAXreg_rd>
 8002d7c:	10803fcc 	andi	r2,r2,255
 8002d80:	1080004c 	andi	r2,r2,1
 8002d84:	1000b21e 	bne	r2,zero,8003050 <USB_Task+0x478>
                        tmpdata = MAXreg_rd( rMODE ) | bmSOFKAENAB;                 //start SOF generation
 8002d88:	01003604 	movi	r4,216
 8002d8c:	8001f700 	call	8001f70 <MAXreg_rd>
 8002d90:	10800214 	ori	r2,r2,8
 8002d94:	e0bffe45 	stb	r2,-7(fp)
                        MAXreg_wr( rMODE, tmpdata );
 8002d98:	e0bffe43 	ldbu	r2,-7(fp)
 8002d9c:	100b883a 	mov	r5,r2
 8002da0:	01003604 	movi	r4,216
 8002da4:	8001de80 	call	8001de8 <MAXreg_wr>
                        usb_task_state = USB_ATTACHED_SUBSTATE_WAIT_SOF;
 8002da8:	00800504 	movi	r2,20
 8002dac:	d0a00805 	stb	r2,-32736(gp)
                    break;//case( USB_ATTACHED_SUBSTATE_WAIT_RESET_COMPLETE )
 8002db0:	0000a706 	br	8003050 <USB_Task+0x478>
                    if( MAXreg_rd( rHIRQ ) | bmFRAMEIRQ ) {                     //when first SOF received we can continue
 8002db4:	01003204 	movi	r4,200
 8002db8:	8001f700 	call	8001f70 <MAXreg_rd>
                        usb_task_state = USB_ATTACHED_SUBSTATE_GET_DEVICE_DESCRIPTOR_SIZE;
 8002dbc:	00800544 	movi	r2,21
 8002dc0:	d0a00805 	stb	r2,-32736(gp)
                    break;//case( USB_ATTACHED_SUBSTATE_WAIT_SOF )
 8002dc4:	0000a306 	br	8003054 <USB_Task+0x47c>
                    devtable[ 0 ].epinfo->MaxPktSize = 0x0008;             //fill max packet size with minimum allowed
 8002dc8:	008200b4 	movhi	r2,2050
 8002dcc:	10aef717 	ldw	r2,-17444(r2)
 8002dd0:	00c00204 	movi	r3,8
 8002dd4:	10c0008d 	sth	r3,2(r2)
                	rcode = XferGetDevDescr( 0, 0, 8, (BYTE *)&buf );       //get device descriptor size
 8002dd8:	e0bff984 	addi	r2,fp,-26
 8002ddc:	d8800415 	stw	r2,16(sp)
 8002de0:	00800204 	movi	r2,8
 8002de4:	d8800315 	stw	r2,12(sp)
 8002de8:	d8000215 	stw	zero,8(sp)
 8002dec:	00800044 	movi	r2,1
 8002df0:	d8800115 	stw	r2,4(sp)
 8002df4:	d8000015 	stw	zero,0(sp)
 8002df8:	01c00184 	movi	r7,6
 8002dfc:	01802004 	movi	r6,128
 8002e00:	000b883a 	mov	r5,zero
 8002e04:	0009883a 	mov	r4,zero
 8002e08:	80025880 	call	8002588 <XferCtrlReq>
 8002e0c:	e0bffe85 	stb	r2,-6(fp)
                    if( rcode == 0 ) {
 8002e10:	e0bffe83 	ldbu	r2,-6(fp)
 8002e14:	1000851e 	bne	r2,zero,800302c <USB_Task+0x454>
                        devtable[ 0 ].epinfo->MaxPktSize = buf.bMaxPacketSize0;
 8002e18:	e0fffb43 	ldbu	r3,-19(fp)
 8002e1c:	008200b4 	movhi	r2,2050
 8002e20:	10aef717 	ldw	r2,-17444(r2)
 8002e24:	18c03fcc 	andi	r3,r3,255
 8002e28:	10c0008d 	sth	r3,2(r2)
                        rcode = XferGetDevDescr( 0, 0, buf.bLength, (BYTE *)&buf );     //get full descriptor
 8002e2c:	e0bff983 	ldbu	r2,-26(fp)
 8002e30:	10803fcc 	andi	r2,r2,255
 8002e34:	e0fff984 	addi	r3,fp,-26
 8002e38:	d8c00415 	stw	r3,16(sp)
 8002e3c:	d8800315 	stw	r2,12(sp)
 8002e40:	d8000215 	stw	zero,8(sp)
 8002e44:	00800044 	movi	r2,1
 8002e48:	d8800115 	stw	r2,4(sp)
 8002e4c:	d8000015 	stw	zero,0(sp)
 8002e50:	01c00184 	movi	r7,6
 8002e54:	01802004 	movi	r6,128
 8002e58:	000b883a 	mov	r5,zero
 8002e5c:	0009883a 	mov	r4,zero
 8002e60:	80025880 	call	8002588 <XferCtrlReq>
 8002e64:	e0bffe85 	stb	r2,-6(fp)
                        if (buf.iManufacturer != 0)
 8002e68:	e0bffd03 	ldbu	r2,-12(fp)
 8002e6c:	10803fcc 	andi	r2,r2,255
 8002e70:	10003426 	beq	r2,zero,8002f44 <USB_Task+0x36c>
                			rcode = XferGetStrDescr( 0, 0, 2, buf.iManufacturer, LANG_EN_US, (BYTE *)&strDesc);
 8002e74:	e0bffd03 	ldbu	r2,-12(fp)
 8002e78:	10803fcc 	andi	r2,r2,255
 8002e7c:	e0ffb984 	addi	r3,fp,-282
 8002e80:	d8c00415 	stw	r3,16(sp)
 8002e84:	00c00084 	movi	r3,2
 8002e88:	d8c00315 	stw	r3,12(sp)
 8002e8c:	00c10244 	movi	r3,1033
 8002e90:	d8c00215 	stw	r3,8(sp)
 8002e94:	00c000c4 	movi	r3,3
 8002e98:	d8c00115 	stw	r3,4(sp)
 8002e9c:	d8800015 	stw	r2,0(sp)
 8002ea0:	01c00184 	movi	r7,6
 8002ea4:	01802004 	movi	r6,128
 8002ea8:	000b883a 	mov	r5,zero
 8002eac:	0009883a 	mov	r4,zero
 8002eb0:	80025880 	call	8002588 <XferCtrlReq>
 8002eb4:	e0bffe85 	stb	r2,-6(fp)
                			rcode = XferGetStrDescr( 0, 0, strDesc.bLength, buf.iManufacturer, LANG_EN_US, (BYTE *)&strDesc);
 8002eb8:	e0bffd03 	ldbu	r2,-12(fp)
 8002ebc:	10803fcc 	andi	r2,r2,255
 8002ec0:	e0ffb983 	ldbu	r3,-282(fp)
 8002ec4:	18c03fcc 	andi	r3,r3,255
 8002ec8:	e13fb984 	addi	r4,fp,-282
 8002ecc:	d9000415 	stw	r4,16(sp)
 8002ed0:	d8c00315 	stw	r3,12(sp)
 8002ed4:	00c10244 	movi	r3,1033
 8002ed8:	d8c00215 	stw	r3,8(sp)
 8002edc:	00c000c4 	movi	r3,3
 8002ee0:	d8c00115 	stw	r3,4(sp)
 8002ee4:	d8800015 	stw	r2,0(sp)
 8002ee8:	01c00184 	movi	r7,6
 8002eec:	01802004 	movi	r6,128
 8002ef0:	000b883a 	mov	r5,zero
 8002ef4:	0009883a 	mov	r4,zero
 8002ef8:	80025880 	call	8002588 <XferCtrlReq>
 8002efc:	e0bffe85 	stb	r2,-6(fp)
                			printf ("Mfgr string(%i): %s\n", buf.iManufacturer, ConvUTF8ToStr(strDesc.bString, (strDesc.bLength>>1)-1));
 8002f00:	e0bffd03 	ldbu	r2,-12(fp)
 8002f04:	14003fcc 	andi	r16,r2,255
 8002f08:	e0bfb983 	ldbu	r2,-282(fp)
 8002f0c:	10803fcc 	andi	r2,r2,255
 8002f10:	1004d07a 	srli	r2,r2,1
 8002f14:	10bfffc4 	addi	r2,r2,-1
 8002f18:	10c03fcc 	andi	r3,r2,255
 8002f1c:	e0bfb984 	addi	r2,fp,-282
 8002f20:	10800084 	addi	r2,r2,2
 8002f24:	180b883a 	mov	r5,r3
 8002f28:	1009883a 	mov	r4,r2
 8002f2c:	80033c00 	call	80033c0 <ConvUTF8ToStr>
 8002f30:	100d883a 	mov	r6,r2
 8002f34:	800b883a 	mov	r5,r16
 8002f38:	01020074 	movhi	r4,2049
 8002f3c:	211e9804 	addi	r4,r4,31328
 8002f40:	800852c0 	call	800852c <printf>
                		if (buf.iProduct != 0)
 8002f44:	e0bffd43 	ldbu	r2,-11(fp)
 8002f48:	10803fcc 	andi	r2,r2,255
 8002f4c:	10003426 	beq	r2,zero,8003020 <USB_Task+0x448>
                        	rcode = XferGetStrDescr( 0, 0, 2, buf.iProduct, LANG_EN_US, (BYTE *)&strDesc);
 8002f50:	e0bffd43 	ldbu	r2,-11(fp)
 8002f54:	10803fcc 	andi	r2,r2,255
 8002f58:	e0ffb984 	addi	r3,fp,-282
 8002f5c:	d8c00415 	stw	r3,16(sp)
 8002f60:	00c00084 	movi	r3,2
 8002f64:	d8c00315 	stw	r3,12(sp)
 8002f68:	00c10244 	movi	r3,1033
 8002f6c:	d8c00215 	stw	r3,8(sp)
 8002f70:	00c000c4 	movi	r3,3
 8002f74:	d8c00115 	stw	r3,4(sp)
 8002f78:	d8800015 	stw	r2,0(sp)
 8002f7c:	01c00184 	movi	r7,6
 8002f80:	01802004 	movi	r6,128
 8002f84:	000b883a 	mov	r5,zero
 8002f88:	0009883a 	mov	r4,zero
 8002f8c:	80025880 	call	8002588 <XferCtrlReq>
 8002f90:	e0bffe85 	stb	r2,-6(fp)
                			rcode = XferGetStrDescr( 0, 0, strDesc.bLength, buf.iProduct, LANG_EN_US, (BYTE *)&strDesc);
 8002f94:	e0bffd43 	ldbu	r2,-11(fp)
 8002f98:	10803fcc 	andi	r2,r2,255
 8002f9c:	e0ffb983 	ldbu	r3,-282(fp)
 8002fa0:	18c03fcc 	andi	r3,r3,255
 8002fa4:	e13fb984 	addi	r4,fp,-282
 8002fa8:	d9000415 	stw	r4,16(sp)
 8002fac:	d8c00315 	stw	r3,12(sp)
 8002fb0:	00c10244 	movi	r3,1033
 8002fb4:	d8c00215 	stw	r3,8(sp)
 8002fb8:	00c000c4 	movi	r3,3
 8002fbc:	d8c00115 	stw	r3,4(sp)
 8002fc0:	d8800015 	stw	r2,0(sp)
 8002fc4:	01c00184 	movi	r7,6
 8002fc8:	01802004 	movi	r6,128
 8002fcc:	000b883a 	mov	r5,zero
 8002fd0:	0009883a 	mov	r4,zero
 8002fd4:	80025880 	call	8002588 <XferCtrlReq>
 8002fd8:	e0bffe85 	stb	r2,-6(fp)
                			printf ("Product string(%i): %s\n", buf.iProduct, ConvUTF8ToStr(strDesc.bString, (strDesc.bLength>>1)-1));
 8002fdc:	e0bffd43 	ldbu	r2,-11(fp)
 8002fe0:	14003fcc 	andi	r16,r2,255
 8002fe4:	e0bfb983 	ldbu	r2,-282(fp)
 8002fe8:	10803fcc 	andi	r2,r2,255
 8002fec:	1004d07a 	srli	r2,r2,1
 8002ff0:	10bfffc4 	addi	r2,r2,-1
 8002ff4:	10c03fcc 	andi	r3,r2,255
 8002ff8:	e0bfb984 	addi	r2,fp,-282
 8002ffc:	10800084 	addi	r2,r2,2
 8003000:	180b883a 	mov	r5,r3
 8003004:	1009883a 	mov	r4,r2
 8003008:	80033c00 	call	80033c0 <ConvUTF8ToStr>
 800300c:	100d883a 	mov	r6,r2
 8003010:	800b883a 	mov	r5,r16
 8003014:	01020074 	movhi	r4,2049
 8003018:	211e9e04 	addi	r4,r4,31352
 800301c:	800852c0 	call	800852c <printf>
                        usb_task_state = USB_STATE_ADDRESSING;
 8003020:	00800804 	movi	r2,32
 8003024:	d0a00805 	stb	r2,-32736(gp)
                    break;//case( USB_ATTACHED_SUBSTATE_GET_DEVICE_DESCRIPTOR_SIZE ):
 8003028:	00000a06 	br	8003054 <USB_Task+0x47c>
                        usb_error = rcode;
 800302c:	e0bffe83 	ldbu	r2,-6(fp)
 8003030:	d0a73b45 	stb	r2,-25363(gp)
                        last_usb_task_state = usb_task_state;
 8003034:	d0a00803 	ldbu	r2,-32736(gp)
 8003038:	d0a73905 	stb	r2,-25372(gp)
                        usb_task_state = USB_STATE_ERROR;
 800303c:	00bfffc4 	movi	r2,-1
 8003040:	d0a00805 	stb	r2,-32736(gp)
                    break;//case( USB_ATTACHED_SUBSTATE_GET_DEVICE_DESCRIPTOR_SIZE ):
 8003044:	00000306 	br	8003054 <USB_Task+0x47c>
                    break;//case( USB_ATTACHED_SUBSTATE_SETTLE )
 8003048:	0001883a 	nop
 800304c:	00006c06 	br	8003200 <USB_Task+0x628>
                    break;//case( USB_ATTACHED_SUBSTATE_WAIT_RESET_COMPLETE )
 8003050:	0001883a 	nop
            break;//case ( USB_STATE_ATTACHED )
 8003054:	00006a06 	br	8003200 <USB_Task+0x628>
            for( i = 1; i < USB_NUMDEVICES; i++ ) {
 8003058:	00800044 	movi	r2,1
 800305c:	e0bffec5 	stb	r2,-5(fp)
 8003060:	00002a06 	br	800310c <USB_Task+0x534>
                if( devtable[ i ].epinfo == NULL ) {
 8003064:	e0bffec3 	ldbu	r2,-5(fp)
 8003068:	100690fa 	slli	r3,r2,3
 800306c:	008200b4 	movhi	r2,2050
 8003070:	1885883a 	add	r2,r3,r2
 8003074:	10aef717 	ldw	r2,-17444(r2)
 8003078:	1000211e 	bne	r2,zero,8003100 <USB_Task+0x528>
                    devtable[ i ].epinfo = devtable[ 0 ].epinfo;        //set correct MaxPktSize
 800307c:	e0bffec3 	ldbu	r2,-5(fp)
 8003080:	00c200b4 	movhi	r3,2050
 8003084:	18eef717 	ldw	r3,-17444(r3)
 8003088:	100890fa 	slli	r4,r2,3
 800308c:	008200b4 	movhi	r2,2050
 8003090:	2085883a 	add	r2,r4,r2
 8003094:	10eef715 	stw	r3,-17444(r2)
                    rcode = XferSetAddr( 0, 0, i );
 8003098:	e0bffec3 	ldbu	r2,-5(fp)
 800309c:	d8000415 	stw	zero,16(sp)
 80030a0:	d8000315 	stw	zero,12(sp)
 80030a4:	d8000215 	stw	zero,8(sp)
 80030a8:	d8000115 	stw	zero,4(sp)
 80030ac:	d8800015 	stw	r2,0(sp)
 80030b0:	01c00144 	movi	r7,5
 80030b4:	000d883a 	mov	r6,zero
 80030b8:	000b883a 	mov	r5,zero
 80030bc:	0009883a 	mov	r4,zero
 80030c0:	80025880 	call	8002588 <XferCtrlReq>
 80030c4:	e0bffe85 	stb	r2,-6(fp)
                    if( rcode == 0 ) {
 80030c8:	e0bffe83 	ldbu	r2,-6(fp)
 80030cc:	1000051e 	bne	r2,zero,80030e4 <USB_Task+0x50c>
                        tmp_addr = i;
 80030d0:	e0bffec3 	ldbu	r2,-5(fp)
 80030d4:	d0a73b05 	stb	r2,-25364(gp)
                        usb_task_state = USB_STATE_CONFIGURING;
 80030d8:	00800c04 	movi	r2,48
 80030dc:	d0a00805 	stb	r2,-32736(gp)
                    break;  //break if address assigned or error occurred during address assignment attempt
 80030e0:	00000d06 	br	8003118 <USB_Task+0x540>
                        usb_error = rcode;          //set address error
 80030e4:	e0bffe83 	ldbu	r2,-6(fp)
 80030e8:	d0a73b45 	stb	r2,-25363(gp)
                        last_usb_task_state = usb_task_state;
 80030ec:	d0a00803 	ldbu	r2,-32736(gp)
 80030f0:	d0a73905 	stb	r2,-25372(gp)
                        usb_task_state = USB_STATE_ERROR;
 80030f4:	00bfffc4 	movi	r2,-1
 80030f8:	d0a00805 	stb	r2,-32736(gp)
                    break;  //break if address assigned or error occurred during address assignment attempt
 80030fc:	00000606 	br	8003118 <USB_Task+0x540>
            for( i = 1; i < USB_NUMDEVICES; i++ ) {
 8003100:	e0bffec3 	ldbu	r2,-5(fp)
 8003104:	10800044 	addi	r2,r2,1
 8003108:	e0bffec5 	stb	r2,-5(fp)
 800310c:	e0bffec3 	ldbu	r2,-5(fp)
 8003110:	10800230 	cmpltui	r2,r2,8
 8003114:	103fd31e 	bne	r2,zero,8003064 <USB_Task+0x48c>
            if( usb_task_state == USB_STATE_ADDRESSING ) {
 8003118:	d0a00803 	ldbu	r2,-32736(gp)
 800311c:	10803fcc 	andi	r2,r2,255
 8003120:	10800818 	cmpnei	r2,r2,32
 8003124:	1000381e 	bne	r2,zero,8003208 <USB_Task+0x630>
                usb_error = 0xfe;
 8003128:	00bfff84 	movi	r2,-2
 800312c:	d0a73b45 	stb	r2,-25363(gp)
                last_usb_task_state = usb_task_state;
 8003130:	d0a00803 	ldbu	r2,-32736(gp)
 8003134:	d0a73905 	stb	r2,-25372(gp)
                usb_task_state = USB_STATE_ERROR;
 8003138:	00bfffc4 	movi	r2,-1
 800313c:	d0a00805 	stb	r2,-32736(gp)
            break;//case ( USB_STATE_ADDRESSING )
 8003140:	00003106 	br	8003208 <USB_Task+0x630>
            for( i = 0; i < USB_NUMCLASSES; i++ ) {
 8003144:	e03ffec5 	stb	zero,-5(fp)
 8003148:	00001706 	br	80031a8 <USB_Task+0x5d0>
                rcode = ClientDriverTable[ i ].Initialize( tmp_addr, 0 );
 800314c:	e0fffec3 	ldbu	r3,-5(fp)
 8003150:	1805883a 	mov	r2,r3
 8003154:	1085883a 	add	r2,r2,r2
 8003158:	10c5883a 	add	r2,r2,r3
 800315c:	100490ba 	slli	r2,r2,2
 8003160:	00c200b4 	movhi	r3,2050
 8003164:	10c7883a 	add	r3,r2,r3
 8003168:	18a04717 	ldw	r2,-32484(r3)
 800316c:	d0e73b03 	ldbu	r3,-25364(gp)
 8003170:	18c03fcc 	andi	r3,r3,255
 8003174:	000b883a 	mov	r5,zero
 8003178:	1809883a 	mov	r4,r3
 800317c:	103ee83a 	callr	r2
 8003180:	e0bffe85 	stb	r2,-6(fp)
                if( rcode == TRUE ) {
 8003184:	e0bffe83 	ldbu	r2,-6(fp)
 8003188:	10800058 	cmpnei	r2,r2,1
 800318c:	1000031e 	bne	r2,zero,800319c <USB_Task+0x5c4>
			        usb_task_state = USB_STATE_RUNNING;
 8003190:	00801004 	movi	r2,64
 8003194:	d0a00805 	stb	r2,-32736(gp)
                    break;
 8003198:	00000606 	br	80031b4 <USB_Task+0x5dc>
            for( i = 0; i < USB_NUMCLASSES; i++ ) {
 800319c:	e0bffec3 	ldbu	r2,-5(fp)
 80031a0:	10800044 	addi	r2,r2,1
 80031a4:	e0bffec5 	stb	r2,-5(fp)
 80031a8:	e0bffec3 	ldbu	r2,-5(fp)
 80031ac:	10800130 	cmpltui	r2,r2,4
 80031b0:	103fe61e 	bne	r2,zero,800314c <USB_Task+0x574>
            if( usb_task_state == USB_STATE_CONFIGURING ) {
 80031b4:	d0a00803 	ldbu	r2,-32736(gp)
 80031b8:	10803fcc 	andi	r2,r2,255
 80031bc:	10800c18 	cmpnei	r2,r2,48
 80031c0:	1000131e 	bne	r2,zero,8003210 <USB_Task+0x638>
                usb_error = 0xfd;
 80031c4:	00bfff44 	movi	r2,-3
 80031c8:	d0a73b45 	stb	r2,-25363(gp)
                last_usb_task_state = usb_task_state;
 80031cc:	d0a00803 	ldbu	r2,-32736(gp)
 80031d0:	d0a73905 	stb	r2,-25372(gp)
                usb_task_state = USB_STATE_ERROR;
 80031d4:	00bfffc4 	movi	r2,-1
 80031d8:	d0a00805 	stb	r2,-32736(gp)
            break;//( USB_STATE_CONFIGURING )
 80031dc:	00000c06 	br	8003210 <USB_Task+0x638>
            break;//( USB_STATE_ERROR )
 80031e0:	0001883a 	nop
 80031e4:	00000b06 	br	8003214 <USB_Task+0x63c>
            break;
 80031e8:	0001883a 	nop
 80031ec:	00000906 	br	8003214 <USB_Task+0x63c>
            break;//( USB_STATE_RUNNING )
 80031f0:	0001883a 	nop
 80031f4:	00000706 	br	8003214 <USB_Task+0x63c>
            break;//( USB_STATE_DETACHED ):
 80031f8:	0001883a 	nop
 80031fc:	00000506 	br	8003214 <USB_Task+0x63c>
            break;//case ( USB_STATE_ATTACHED )
 8003200:	0001883a 	nop
 8003204:	00000306 	br	8003214 <USB_Task+0x63c>
            break;//case ( USB_STATE_ADDRESSING )
 8003208:	0001883a 	nop
 800320c:	00000106 	br	8003214 <USB_Task+0x63c>
            break;//( USB_STATE_CONFIGURING )
 8003210:	0001883a 	nop
    }//switch( usb_task_state & STATE_MASK )
}
 8003214:	0001883a 	nop
 8003218:	e6ffff04 	addi	sp,fp,-4
 800321c:	dfc00217 	ldw	ra,8(sp)
 8003220:	df000117 	ldw	fp,4(sp)
 8003224:	dc000017 	ldw	r16,0(sp)
 8003228:	dec00304 	addi	sp,sp,12
 800322c:	f800283a 	ret

08003230 <MSDProbe>:

//place-holders for MSD (mass-storage device) drivers, we don't have them ported.
//returns TRUE if device is successfully identified and configured, otherwise returns FALSE
BOOL MSDProbe( BYTE addr, DWORD flags )
{
 8003230:	defffd04 	addi	sp,sp,-12
 8003234:	df000215 	stw	fp,8(sp)
 8003238:	df000204 	addi	fp,sp,8
 800323c:	2005883a 	mov	r2,r4
 8003240:	e17ffe15 	stw	r5,-8(fp)
 8003244:	e0bfff05 	stb	r2,-4(fp)
    return( FALSE );
 8003248:	0005883a 	mov	r2,zero
}
 800324c:	e037883a 	mov	sp,fp
 8003250:	df000017 	ldw	fp,0(sp)
 8003254:	dec00104 	addi	sp,sp,4
 8003258:	f800283a 	ret

0800325c <MSDEventHandler>:

BOOL MSDEventHandler( BYTE address, BYTE event, void *data, DWORD size )
{
 800325c:	defffb04 	addi	sp,sp,-20
 8003260:	df000415 	stw	fp,16(sp)
 8003264:	df000404 	addi	fp,sp,16
 8003268:	2005883a 	mov	r2,r4
 800326c:	2807883a 	mov	r3,r5
 8003270:	e1bffd15 	stw	r6,-12(fp)
 8003274:	e1fffc15 	stw	r7,-16(fp)
 8003278:	e0bfff05 	stb	r2,-4(fp)
 800327c:	1805883a 	mov	r2,r3
 8003280:	e0bffe05 	stb	r2,-8(fp)

	return( FALSE );
 8003284:	0005883a 	mov	r2,zero

}
 8003288:	e037883a 	mov	sp,fp
 800328c:	df000017 	ldw	fp,0(sp)
 8003290:	dec00104 	addi	sp,sp,4
 8003294:	f800283a 	ret

08003298 <CDCProbe>:
//CDC (communication device class also not supported)
BOOL CDCProbe( BYTE address, DWORD flags )
{
 8003298:	defffd04 	addi	sp,sp,-12
 800329c:	df000215 	stw	fp,8(sp)
 80032a0:	df000204 	addi	fp,sp,8
 80032a4:	2005883a 	mov	r2,r4
 80032a8:	e17ffe15 	stw	r5,-8(fp)
 80032ac:	e0bfff05 	stb	r2,-4(fp)

	return( FALSE );
 80032b0:	0005883a 	mov	r2,zero

}
 80032b4:	e037883a 	mov	sp,fp
 80032b8:	df000017 	ldw	fp,0(sp)
 80032bc:	dec00104 	addi	sp,sp,4
 80032c0:	f800283a 	ret

080032c4 <CDCEventHandler>:

BOOL CDCEventHandler( BYTE address, BYTE event, void *data, DWORD size )
{
 80032c4:	defffb04 	addi	sp,sp,-20
 80032c8:	df000415 	stw	fp,16(sp)
 80032cc:	df000404 	addi	fp,sp,16
 80032d0:	2005883a 	mov	r2,r4
 80032d4:	2807883a 	mov	r3,r5
 80032d8:	e1bffd15 	stw	r6,-12(fp)
 80032dc:	e1fffc15 	stw	r7,-16(fp)
 80032e0:	e0bfff05 	stb	r2,-4(fp)
 80032e4:	1805883a 	mov	r2,r3
 80032e8:	e0bffe05 	stb	r2,-8(fp)
	return( FALSE );
 80032ec:	0005883a 	mov	r2,zero
}
 80032f0:	e037883a 	mov	sp,fp
 80032f4:	df000017 	ldw	fp,0(sp)
 80032f8:	dec00104 	addi	sp,sp,4
 80032fc:	f800283a 	ret

08003300 <DummyProbe>:

BOOL DummyProbe( BYTE address , DWORD flags )
{
 8003300:	defffd04 	addi	sp,sp,-12
 8003304:	df000215 	stw	fp,8(sp)
 8003308:	df000204 	addi	fp,sp,8
 800330c:	2005883a 	mov	r2,r4
 8003310:	e17ffe15 	stw	r5,-8(fp)
 8003314:	e0bfff05 	stb	r2,-4(fp)
	return( FALSE );
 8003318:	0005883a 	mov	r2,zero
}
 800331c:	e037883a 	mov	sp,fp
 8003320:	df000017 	ldw	fp,0(sp)
 8003324:	dec00104 	addi	sp,sp,4
 8003328:	f800283a 	ret

0800332c <DummyEventHandler>:

BOOL DummyEventHandler( BYTE address, BYTE event, void *data, DWORD size )
{
 800332c:	defffb04 	addi	sp,sp,-20
 8003330:	df000415 	stw	fp,16(sp)
 8003334:	df000404 	addi	fp,sp,16
 8003338:	2005883a 	mov	r2,r4
 800333c:	2807883a 	mov	r3,r5
 8003340:	e1bffd15 	stw	r6,-12(fp)
 8003344:	e1fffc15 	stw	r7,-16(fp)
 8003348:	e0bfff05 	stb	r2,-4(fp)
 800334c:	1805883a 	mov	r2,r3
 8003350:	e0bffe05 	stb	r2,-8(fp)
	return( FALSE );
 8003354:	0005883a 	mov	r2,zero
}
 8003358:	e037883a 	mov	sp,fp
 800335c:	df000017 	ldw	fp,0(sp)
 8003360:	dec00104 	addi	sp,sp,4
 8003364:	f800283a 	ret

08003368 <GetUsbTaskState>:
/* Function to access usb_task_state variable from outside */
BYTE GetUsbTaskState( void )
{
 8003368:	deffff04 	addi	sp,sp,-4
 800336c:	df000015 	stw	fp,0(sp)
 8003370:	d839883a 	mov	fp,sp
    return( usb_task_state );
 8003374:	d0a00803 	ldbu	r2,-32736(gp)
}
 8003378:	e037883a 	mov	sp,fp
 800337c:	df000017 	ldw	fp,0(sp)
 8003380:	dec00104 	addi	sp,sp,4
 8003384:	f800283a 	ret

08003388 <GetDevtable>:
/* Function to access devtable[] from outside */
DEV_RECORD* GetDevtable( BYTE index )
{
 8003388:	defffe04 	addi	sp,sp,-8
 800338c:	df000115 	stw	fp,4(sp)
 8003390:	df000104 	addi	fp,sp,4
 8003394:	2005883a 	mov	r2,r4
 8003398:	e0bfff05 	stb	r2,-4(fp)
    return( &devtable[ index ] );
 800339c:	e0bfff03 	ldbu	r2,-4(fp)
 80033a0:	100690fa 	slli	r3,r2,3
 80033a4:	008200b4 	movhi	r2,2050
 80033a8:	10aef704 	addi	r2,r2,-17444
 80033ac:	1885883a 	add	r2,r3,r2
}
 80033b0:	e037883a 	mov	sp,fp
 80033b4:	df000017 	ldw	fp,0(sp)
 80033b8:	dec00104 	addi	sp,sp,4
 80033bc:	f800283a 	ret

080033c0 <ConvUTF8ToStr>:

char* ConvUTF8ToStr(BYTE* utf8, BYTE length)
{
 80033c0:	defffc04 	addi	sp,sp,-16
 80033c4:	df000315 	stw	fp,12(sp)
 80033c8:	df000304 	addi	fp,sp,12
 80033cc:	e13ffe15 	stw	r4,-8(fp)
 80033d0:	2805883a 	mov	r2,r5
 80033d4:	e0bffd05 	stb	r2,-12(fp)
	BYTE i;
	for (i = 0; i < length; i++)
 80033d8:	e03fffc5 	stb	zero,-1(fp)
 80033dc:	00000d06 	br	8003414 <ConvUTF8ToStr+0x54>
	{
		utf8[i] = utf8[2*i];
 80033e0:	e0bfffc3 	ldbu	r2,-1(fp)
 80033e4:	1085883a 	add	r2,r2,r2
 80033e8:	1007883a 	mov	r3,r2
 80033ec:	e0bffe17 	ldw	r2,-8(fp)
 80033f0:	10c7883a 	add	r3,r2,r3
 80033f4:	e0bfffc3 	ldbu	r2,-1(fp)
 80033f8:	e13ffe17 	ldw	r4,-8(fp)
 80033fc:	2085883a 	add	r2,r4,r2
 8003400:	18c00003 	ldbu	r3,0(r3)
 8003404:	10c00005 	stb	r3,0(r2)
	for (i = 0; i < length; i++)
 8003408:	e0bfffc3 	ldbu	r2,-1(fp)
 800340c:	10800044 	addi	r2,r2,1
 8003410:	e0bfffc5 	stb	r2,-1(fp)
 8003414:	e0ffffc3 	ldbu	r3,-1(fp)
 8003418:	e0bffd03 	ldbu	r2,-12(fp)
 800341c:	18bff036 	bltu	r3,r2,80033e0 <ConvUTF8ToStr+0x20>
	}
	utf8[length] = 0x00;
 8003420:	e0bffd03 	ldbu	r2,-12(fp)
 8003424:	e0fffe17 	ldw	r3,-8(fp)
 8003428:	1885883a 	add	r2,r3,r2
 800342c:	10000005 	stb	zero,0(r2)
	return (char*)utf8;
 8003430:	e0bffe17 	ldw	r2,-8(fp)
}
 8003434:	e037883a 	mov	sp,fp
 8003438:	df000017 	ldw	fp,0(sp)
 800343c:	dec00104 	addi	sp,sp,4
 8003440:	f800283a 	ret

08003444 <pow>:
 8003444:	defff704 	addi	sp,sp,-36
 8003448:	dd400515 	stw	r21,20(sp)
 800344c:	dd000415 	stw	r20,16(sp)
 8003450:	dcc00315 	stw	r19,12(sp)
 8003454:	dc800215 	stw	r18,8(sp)
 8003458:	dc400115 	stw	r17,4(sp)
 800345c:	dc000015 	stw	r16,0(sp)
 8003460:	202b883a 	mov	r21,r4
 8003464:	dfc00815 	stw	ra,32(sp)
 8003468:	ddc00715 	stw	r23,28(sp)
 800346c:	dd800615 	stw	r22,24(sp)
 8003470:	2823883a 	mov	r17,r5
 8003474:	3021883a 	mov	r16,r6
 8003478:	3825883a 	mov	r18,r7
 800347c:	80037dc0 	call	80037dc <__ieee754_pow>
 8003480:	010200b4 	movhi	r4,2050
 8003484:	22275217 	ldw	r8,-25272(r4)
 8003488:	1029883a 	mov	r20,r2
 800348c:	1827883a 	mov	r19,r3
 8003490:	423fffe0 	cmpeqi	r8,r8,-1
 8003494:	40002f1e 	bne	r8,zero,8003554 <pow+0x110>
 8003498:	800d883a 	mov	r6,r16
 800349c:	900f883a 	mov	r7,r18
 80034a0:	8009883a 	mov	r4,r16
 80034a4:	900b883a 	mov	r5,r18
 80034a8:	80082080 	call	8008208 <__unorddf2>
 80034ac:	1000291e 	bne	r2,zero,8003554 <pow+0x110>
 80034b0:	a80d883a 	mov	r6,r21
 80034b4:	880f883a 	mov	r7,r17
 80034b8:	a809883a 	mov	r4,r21
 80034bc:	880b883a 	mov	r5,r17
 80034c0:	80082080 	call	8008208 <__unorddf2>
 80034c4:	000d883a 	mov	r6,zero
 80034c8:	000f883a 	mov	r7,zero
 80034cc:	1000a61e 	bne	r2,zero,8003768 <pow+0x324>
 80034d0:	a809883a 	mov	r4,r21
 80034d4:	880b883a 	mov	r5,r17
 80034d8:	8006ecc0 	call	8006ecc <__eqdf2>
 80034dc:	10002a1e 	bne	r2,zero,8003588 <pow+0x144>
 80034e0:	000d883a 	mov	r6,zero
 80034e4:	000f883a 	mov	r7,zero
 80034e8:	8009883a 	mov	r4,r16
 80034ec:	900b883a 	mov	r5,r18
 80034f0:	8006ecc0 	call	8006ecc <__eqdf2>
 80034f4:	1000a026 	beq	r2,zero,8003778 <pow+0x334>
 80034f8:	01600034 	movhi	r5,32768
 80034fc:	297fffc4 	addi	r5,r5,-1
 8003500:	9162703a 	and	r17,r18,r5
 8003504:	01dffc34 	movhi	r7,32752
 8003508:	01bfffc4 	movi	r6,-1
 800350c:	39ffffc4 	addi	r7,r7,-1
 8003510:	8009883a 	mov	r4,r16
 8003514:	880b883a 	mov	r5,r17
 8003518:	80082080 	call	8008208 <__unorddf2>
 800351c:	10000d1e 	bne	r2,zero,8003554 <pow+0x110>
 8003520:	01dffc34 	movhi	r7,32752
 8003524:	01bfffc4 	movi	r6,-1
 8003528:	39ffffc4 	addi	r7,r7,-1
 800352c:	8009883a 	mov	r4,r16
 8003530:	880b883a 	mov	r5,r17
 8003534:	8006f4c0 	call	8006f4c <__gedf2>
 8003538:	00800616 	blt	zero,r2,8003554 <pow+0x110>
 800353c:	000d883a 	mov	r6,zero
 8003540:	000f883a 	mov	r7,zero
 8003544:	8009883a 	mov	r4,r16
 8003548:	900b883a 	mov	r5,r18
 800354c:	800703c0 	call	800703c <__ledf2>
 8003550:	10008c16 	blt	r2,zero,8003784 <pow+0x340>
 8003554:	a005883a 	mov	r2,r20
 8003558:	9807883a 	mov	r3,r19
 800355c:	dfc00817 	ldw	ra,32(sp)
 8003560:	ddc00717 	ldw	r23,28(sp)
 8003564:	dd800617 	ldw	r22,24(sp)
 8003568:	dd400517 	ldw	r21,20(sp)
 800356c:	dd000417 	ldw	r20,16(sp)
 8003570:	dcc00317 	ldw	r19,12(sp)
 8003574:	dc800217 	ldw	r18,8(sp)
 8003578:	dc400117 	ldw	r17,4(sp)
 800357c:	dc000017 	ldw	r16,0(sp)
 8003580:	dec00904 	addi	sp,sp,36
 8003584:	f800283a 	ret
 8003588:	01600034 	movhi	r5,32768
 800358c:	297fffc4 	addi	r5,r5,-1
 8003590:	996c703a 	and	r22,r19,r5
 8003594:	01dffc34 	movhi	r7,32752
 8003598:	01bfffc4 	movi	r6,-1
 800359c:	39ffffc4 	addi	r7,r7,-1
 80035a0:	a009883a 	mov	r4,r20
 80035a4:	b00b883a 	mov	r5,r22
 80035a8:	80082080 	call	8008208 <__unorddf2>
 80035ac:	1000331e 	bne	r2,zero,800367c <pow+0x238>
 80035b0:	01dffc34 	movhi	r7,32752
 80035b4:	01bfffc4 	movi	r6,-1
 80035b8:	39ffffc4 	addi	r7,r7,-1
 80035bc:	a009883a 	mov	r4,r20
 80035c0:	b00b883a 	mov	r5,r22
 80035c4:	8006f4c0 	call	8006f4c <__gedf2>
 80035c8:	00802c16 	blt	zero,r2,800367c <pow+0x238>
 80035cc:	000d883a 	mov	r6,zero
 80035d0:	000f883a 	mov	r7,zero
 80035d4:	a009883a 	mov	r4,r20
 80035d8:	980b883a 	mov	r5,r19
 80035dc:	8006ecc0 	call	8006ecc <__eqdf2>
 80035e0:	103fdc1e 	bne	r2,zero,8003554 <pow+0x110>
 80035e4:	05a00034 	movhi	r22,32768
 80035e8:	b5bfffc4 	addi	r22,r22,-1
 80035ec:	8da2703a 	and	r17,r17,r22
 80035f0:	01dffc34 	movhi	r7,32752
 80035f4:	01bfffc4 	movi	r6,-1
 80035f8:	39ffffc4 	addi	r7,r7,-1
 80035fc:	a809883a 	mov	r4,r21
 8003600:	880b883a 	mov	r5,r17
 8003604:	80082080 	call	8008208 <__unorddf2>
 8003608:	103fd21e 	bne	r2,zero,8003554 <pow+0x110>
 800360c:	01dffc34 	movhi	r7,32752
 8003610:	01bfffc4 	movi	r6,-1
 8003614:	39ffffc4 	addi	r7,r7,-1
 8003618:	a809883a 	mov	r4,r21
 800361c:	880b883a 	mov	r5,r17
 8003620:	8006f4c0 	call	8006f4c <__gedf2>
 8003624:	00bfcb16 	blt	zero,r2,8003554 <pow+0x110>
 8003628:	95a4703a 	and	r18,r18,r22
 800362c:	01dffc34 	movhi	r7,32752
 8003630:	01bfffc4 	movi	r6,-1
 8003634:	39ffffc4 	addi	r7,r7,-1
 8003638:	8009883a 	mov	r4,r16
 800363c:	900b883a 	mov	r5,r18
 8003640:	80082080 	call	8008208 <__unorddf2>
 8003644:	103fc31e 	bne	r2,zero,8003554 <pow+0x110>
 8003648:	01dffc34 	movhi	r7,32752
 800364c:	01bfffc4 	movi	r6,-1
 8003650:	39ffffc4 	addi	r7,r7,-1
 8003654:	8009883a 	mov	r4,r16
 8003658:	900b883a 	mov	r5,r18
 800365c:	8006f4c0 	call	8006f4c <__gedf2>
 8003660:	00bfbc16 	blt	zero,r2,8003554 <pow+0x110>
 8003664:	80084f00 	call	80084f0 <__errno>
 8003668:	00c00884 	movi	r3,34
 800366c:	10c00015 	stw	r3,0(r2)
 8003670:	0029883a 	mov	r20,zero
 8003674:	0027883a 	mov	r19,zero
 8003678:	003fb606 	br	8003554 <pow+0x110>
 800367c:	05a00034 	movhi	r22,32768
 8003680:	b5bfffc4 	addi	r22,r22,-1
 8003684:	8dae703a 	and	r23,r17,r22
 8003688:	01dffc34 	movhi	r7,32752
 800368c:	01bfffc4 	movi	r6,-1
 8003690:	39ffffc4 	addi	r7,r7,-1
 8003694:	a809883a 	mov	r4,r21
 8003698:	b80b883a 	mov	r5,r23
 800369c:	80082080 	call	8008208 <__unorddf2>
 80036a0:	103fac1e 	bne	r2,zero,8003554 <pow+0x110>
 80036a4:	01dffc34 	movhi	r7,32752
 80036a8:	01bfffc4 	movi	r6,-1
 80036ac:	39ffffc4 	addi	r7,r7,-1
 80036b0:	a809883a 	mov	r4,r21
 80036b4:	b80b883a 	mov	r5,r23
 80036b8:	8006f4c0 	call	8006f4c <__gedf2>
 80036bc:	00bfa516 	blt	zero,r2,8003554 <pow+0x110>
 80036c0:	95ac703a 	and	r22,r18,r22
 80036c4:	01dffc34 	movhi	r7,32752
 80036c8:	01bfffc4 	movi	r6,-1
 80036cc:	39ffffc4 	addi	r7,r7,-1
 80036d0:	8009883a 	mov	r4,r16
 80036d4:	b00b883a 	mov	r5,r22
 80036d8:	80082080 	call	8008208 <__unorddf2>
 80036dc:	103fbb1e 	bne	r2,zero,80035cc <pow+0x188>
 80036e0:	01dffc34 	movhi	r7,32752
 80036e4:	01bfffc4 	movi	r6,-1
 80036e8:	39ffffc4 	addi	r7,r7,-1
 80036ec:	8009883a 	mov	r4,r16
 80036f0:	b00b883a 	mov	r5,r22
 80036f4:	8006f4c0 	call	8006f4c <__gedf2>
 80036f8:	00bfb416 	blt	zero,r2,80035cc <pow+0x188>
 80036fc:	a00d883a 	mov	r6,r20
 8003700:	980f883a 	mov	r7,r19
 8003704:	a009883a 	mov	r4,r20
 8003708:	980b883a 	mov	r5,r19
 800370c:	80082080 	call	8008208 <__unorddf2>
 8003710:	1000271e 	bne	r2,zero,80037b0 <pow+0x36c>
 8003714:	80084f00 	call	80084f0 <__errno>
 8003718:	00c00884 	movi	r3,34
 800371c:	10c00015 	stw	r3,0(r2)
 8003720:	000d883a 	mov	r6,zero
 8003724:	000f883a 	mov	r7,zero
 8003728:	a809883a 	mov	r4,r21
 800372c:	880b883a 	mov	r5,r17
 8003730:	800703c0 	call	800703c <__ledf2>
 8003734:	1000190e 	bge	r2,zero,800379c <pow+0x358>
 8003738:	8009883a 	mov	r4,r16
 800373c:	900b883a 	mov	r5,r18
 8003740:	8004b0c0 	call	8004b0c <rint>
 8003744:	800d883a 	mov	r6,r16
 8003748:	900f883a 	mov	r7,r18
 800374c:	1009883a 	mov	r4,r2
 8003750:	180b883a 	mov	r5,r3
 8003754:	8006ecc0 	call	8006ecc <__eqdf2>
 8003758:	0029883a 	mov	r20,zero
 800375c:	10001226 	beq	r2,zero,80037a8 <pow+0x364>
 8003760:	04fffc34 	movhi	r19,65520
 8003764:	003f7b06 	br	8003554 <pow+0x110>
 8003768:	8009883a 	mov	r4,r16
 800376c:	900b883a 	mov	r5,r18
 8003770:	8006ecc0 	call	8006ecc <__eqdf2>
 8003774:	103f771e 	bne	r2,zero,8003554 <pow+0x110>
 8003778:	0029883a 	mov	r20,zero
 800377c:	04cffc34 	movhi	r19,16368
 8003780:	003f7406 	br	8003554 <pow+0x110>
 8003784:	80084f00 	call	80084f0 <__errno>
 8003788:	00c00844 	movi	r3,33
 800378c:	10c00015 	stw	r3,0(r2)
 8003790:	0029883a 	mov	r20,zero
 8003794:	04fffc34 	movhi	r19,65520
 8003798:	003f6e06 	br	8003554 <pow+0x110>
 800379c:	0029883a 	mov	r20,zero
 80037a0:	04dffc34 	movhi	r19,32752
 80037a4:	003f6b06 	br	8003554 <pow+0x110>
 80037a8:	04dffc34 	movhi	r19,32752
 80037ac:	003f6906 	br	8003554 <pow+0x110>
 80037b0:	80084f00 	call	80084f0 <__errno>
 80037b4:	00c00844 	movi	r3,33
 80037b8:	10c00015 	stw	r3,0(r2)
 80037bc:	000d883a 	mov	r6,zero
 80037c0:	000f883a 	mov	r7,zero
 80037c4:	0009883a 	mov	r4,zero
 80037c8:	000b883a 	mov	r5,zero
 80037cc:	80065980 	call	8006598 <__divdf3>
 80037d0:	1029883a 	mov	r20,r2
 80037d4:	1827883a 	mov	r19,r3
 80037d8:	003f5e06 	br	8003554 <pow+0x110>

080037dc <__ieee754_pow>:
 80037dc:	00e00034 	movhi	r3,32768
 80037e0:	18ffffc4 	addi	r3,r3,-1
 80037e4:	deffeb04 	addi	sp,sp,-84
 80037e8:	38c4703a 	and	r2,r7,r3
 80037ec:	dfc01415 	stw	ra,80(sp)
 80037f0:	df001315 	stw	fp,76(sp)
 80037f4:	ddc01215 	stw	r23,72(sp)
 80037f8:	dd801115 	stw	r22,68(sp)
 80037fc:	dd401015 	stw	r21,64(sp)
 8003800:	dd000f15 	stw	r20,60(sp)
 8003804:	dcc00e15 	stw	r19,56(sp)
 8003808:	dc800d15 	stw	r18,52(sp)
 800380c:	dc400c15 	stw	r17,48(sp)
 8003810:	dc000b15 	stw	r16,44(sp)
 8003814:	1190b03a 	or	r8,r2,r6
 8003818:	40003326 	beq	r8,zero,80038e8 <__ieee754_pow+0x10c>
 800381c:	28e8703a 	and	r20,r5,r3
 8003820:	00dffc34 	movhi	r3,32752
 8003824:	282b883a 	mov	r21,r5
 8003828:	1d00130e 	bge	r3,r20,8003878 <__ieee754_pow+0x9c>
 800382c:	00f00434 	movhi	r3,49168
 8003830:	a0c7883a 	add	r3,r20,r3
 8003834:	1906b03a 	or	r3,r3,r4
 8003838:	002d883a 	mov	r22,zero
 800383c:	18002f1e 	bne	r3,zero,80038fc <__ieee754_pow+0x120>
 8003840:	00cffc34 	movhi	r3,16368
 8003844:	b005883a 	mov	r2,r22
 8003848:	dfc01417 	ldw	ra,80(sp)
 800384c:	df001317 	ldw	fp,76(sp)
 8003850:	ddc01217 	ldw	r23,72(sp)
 8003854:	dd801117 	ldw	r22,68(sp)
 8003858:	dd401017 	ldw	r21,64(sp)
 800385c:	dd000f17 	ldw	r20,60(sp)
 8003860:	dcc00e17 	ldw	r19,56(sp)
 8003864:	dc800d17 	ldw	r18,52(sp)
 8003868:	dc400c17 	ldw	r17,48(sp)
 800386c:	dc000b17 	ldw	r16,44(sp)
 8003870:	dec01504 	addi	sp,sp,84
 8003874:	f800283a 	ret
 8003878:	3823883a 	mov	r17,r7
 800387c:	3021883a 	mov	r16,r6
 8003880:	a0c01b26 	beq	r20,r3,80038f0 <__ieee754_pow+0x114>
 8003884:	18bfe916 	blt	r3,r2,800382c <__ieee754_pow+0x50>
 8003888:	00dffc34 	movhi	r3,32752
 800388c:	10c01d26 	beq	r2,r3,8003904 <__ieee754_pow+0x128>
 8003890:	a8006616 	blt	r21,zero,8003a2c <__ieee754_pow+0x250>
 8003894:	0025883a 	mov	r18,zero
 8003898:	80001c26 	beq	r16,zero,800390c <__ieee754_pow+0x130>
 800389c:	00e00034 	movhi	r3,32768
 80038a0:	18ffffc4 	addi	r3,r3,-1
 80038a4:	202d883a 	mov	r22,r4
 80038a8:	a8c6703a 	and	r3,r21,r3
 80038ac:	20003326 	beq	r4,zero,800397c <__ieee754_pow+0x1a0>
 80038b0:	a826d7fa 	srli	r19,r21,31
 80038b4:	9cffffc4 	addi	r19,r19,-1
 80038b8:	94cab03a 	or	r5,r18,r19
 80038bc:	28003e26 	beq	r5,zero,80039b8 <__ieee754_pow+0x1dc>
 80038c0:	01507834 	movhi	r5,16864
 80038c4:	2880760e 	bge	r5,r2,8003aa0 <__ieee754_pow+0x2c4>
 80038c8:	0150fc34 	movhi	r5,17392
 80038cc:	28834d0e 	bge	r5,r2,8004604 <__ieee754_pow+0xe28>
 80038d0:	008ffc34 	movhi	r2,16368
 80038d4:	a080440e 	bge	r20,r2,80039e8 <__ieee754_pow+0x20c>
 80038d8:	88004416 	blt	r17,zero,80039ec <__ieee754_pow+0x210>
 80038dc:	002d883a 	mov	r22,zero
 80038e0:	0007883a 	mov	r3,zero
 80038e4:	003fd706 	br	8003844 <__ieee754_pow+0x68>
 80038e8:	002d883a 	mov	r22,zero
 80038ec:	003fd406 	br	8003840 <__ieee754_pow+0x64>
 80038f0:	2000011e 	bne	r4,zero,80038f8 <__ieee754_pow+0x11c>
 80038f4:	a0bfe40e 	bge	r20,r2,8003888 <__ieee754_pow+0xac>
 80038f8:	002d883a 	mov	r22,zero
 80038fc:	00dffe34 	movhi	r3,32760
 8003900:	003fd006 	br	8003844 <__ieee754_pow+0x68>
 8003904:	803fe226 	beq	r16,zero,8003890 <__ieee754_pow+0xb4>
 8003908:	003fc806 	br	800382c <__ieee754_pow+0x50>
 800390c:	00dffc34 	movhi	r3,32752
 8003910:	10c05926 	beq	r2,r3,8003a78 <__ieee754_pow+0x29c>
 8003914:	00cffc34 	movhi	r3,16368
 8003918:	10c30c26 	beq	r2,r3,800454c <__ieee754_pow+0xd70>
 800391c:	00d00034 	movhi	r3,16384
 8003920:	88c3b226 	beq	r17,r3,80047ec <__ieee754_pow+0x1010>
 8003924:	00cff834 	movhi	r3,16352
 8003928:	88ffdc1e 	bne	r17,r3,800389c <__ieee754_pow+0xc0>
 800392c:	a83fdb16 	blt	r21,zero,800389c <__ieee754_pow+0xc0>
 8003930:	a80b883a 	mov	r5,r21
 8003934:	dfc01417 	ldw	ra,80(sp)
 8003938:	df001317 	ldw	fp,76(sp)
 800393c:	ddc01217 	ldw	r23,72(sp)
 8003940:	dd801117 	ldw	r22,68(sp)
 8003944:	dd401017 	ldw	r21,64(sp)
 8003948:	dd000f17 	ldw	r20,60(sp)
 800394c:	dcc00e17 	ldw	r19,56(sp)
 8003950:	dc800d17 	ldw	r18,52(sp)
 8003954:	dc400c17 	ldw	r17,48(sp)
 8003958:	dc000b17 	ldw	r16,44(sp)
 800395c:	dec01504 	addi	sp,sp,84
 8003960:	80048a81 	jmpi	80048a8 <__ieee754_sqrt>
 8003964:	2000141e 	bne	r4,zero,80039b8 <__ieee754_pow+0x1dc>
 8003968:	00e00034 	movhi	r3,32768
 800396c:	18ffffc4 	addi	r3,r3,-1
 8003970:	002d883a 	mov	r22,zero
 8003974:	a8c6703a 	and	r3,r21,r3
 8003978:	0025883a 	mov	r18,zero
 800397c:	a0000526 	beq	r20,zero,8003994 <__ieee754_pow+0x1b8>
 8003980:	01500034 	movhi	r5,16384
 8003984:	297fffc4 	addi	r5,r5,-1
 8003988:	a94a703a 	and	r5,r21,r5
 800398c:	018ffc34 	movhi	r6,16368
 8003990:	29bfc71e 	bne	r5,r6,80038b0 <__ieee754_pow+0xd4>
 8003994:	88001e16 	blt	r17,zero,8003a10 <__ieee754_pow+0x234>
 8003998:	a83faa0e 	bge	r21,zero,8003844 <__ieee754_pow+0x68>
 800399c:	00b00434 	movhi	r2,49168
 80039a0:	a085883a 	add	r2,r20,r2
 80039a4:	1484b03a 	or	r2,r2,r18
 80039a8:	10039d1e 	bne	r2,zero,8004820 <__ieee754_pow+0x1044>
 80039ac:	b00d883a 	mov	r6,r22
 80039b0:	180f883a 	mov	r7,r3
 80039b4:	00000206 	br	80039c0 <__ieee754_pow+0x1e4>
 80039b8:	200d883a 	mov	r6,r4
 80039bc:	a80f883a 	mov	r7,r21
 80039c0:	3009883a 	mov	r4,r6
 80039c4:	380b883a 	mov	r5,r7
 80039c8:	80078d40 	call	80078d4 <__subdf3>
 80039cc:	100d883a 	mov	r6,r2
 80039d0:	180f883a 	mov	r7,r3
 80039d4:	1009883a 	mov	r4,r2
 80039d8:	180b883a 	mov	r5,r3
 80039dc:	80065980 	call	8006598 <__divdf3>
 80039e0:	102d883a 	mov	r22,r2
 80039e4:	003f9706 	br	8003844 <__ieee754_pow+0x68>
 80039e8:	047fbc0e 	bge	zero,r17,80038dc <__ieee754_pow+0x100>
 80039ec:	01a20034 	movhi	r6,34816
 80039f0:	01df8e34 	movhi	r7,32312
 80039f4:	319d6704 	addi	r6,r6,30108
 80039f8:	39f90f04 	addi	r7,r7,-7108
 80039fc:	3009883a 	mov	r4,r6
 8003a00:	380b883a 	mov	r5,r7
 8003a04:	800712c0 	call	800712c <__muldf3>
 8003a08:	102d883a 	mov	r22,r2
 8003a0c:	003f8d06 	br	8003844 <__ieee754_pow+0x68>
 8003a10:	180f883a 	mov	r7,r3
 8003a14:	000d883a 	mov	r6,zero
 8003a18:	0009883a 	mov	r4,zero
 8003a1c:	014ffc34 	movhi	r5,16368
 8003a20:	80065980 	call	8006598 <__divdf3>
 8003a24:	102d883a 	mov	r22,r2
 8003a28:	003fdb06 	br	8003998 <__ieee754_pow+0x1bc>
 8003a2c:	00d0d034 	movhi	r3,17216
 8003a30:	10c00e0e 	bge	r2,r3,8003a6c <__ieee754_pow+0x290>
 8003a34:	00cffc34 	movhi	r3,16368
 8003a38:	10c00916 	blt	r2,r3,8003a60 <__ieee754_pow+0x284>
 8003a3c:	1007d53a 	srai	r3,r2,20
 8003a40:	18ff0044 	addi	r3,r3,-1023
 8003a44:	19400550 	cmplti	r5,r3,21
 8003a48:	2803601e 	bne	r5,zero,80047cc <__ieee754_pow+0xff0>
 8003a4c:	01400d04 	movi	r5,52
 8003a50:	28c7c83a 	sub	r3,r5,r3
 8003a54:	80cad83a 	srl	r5,r16,r3
 8003a58:	28c6983a 	sll	r3,r5,r3
 8003a5c:	1c038726 	beq	r3,r16,800487c <__ieee754_pow+0x10a0>
 8003a60:	0025883a 	mov	r18,zero
 8003a64:	803fab26 	beq	r16,zero,8003914 <__ieee754_pow+0x138>
 8003a68:	003f8c06 	br	800389c <__ieee754_pow+0xc0>
 8003a6c:	04800084 	movi	r18,2
 8003a70:	803f8a1e 	bne	r16,zero,800389c <__ieee754_pow+0xc0>
 8003a74:	003fa506 	br	800390c <__ieee754_pow+0x130>
 8003a78:	00b00434 	movhi	r2,49168
 8003a7c:	a085883a 	add	r2,r20,r2
 8003a80:	1108b03a 	or	r4,r2,r4
 8003a84:	203f9826 	beq	r4,zero,80038e8 <__ieee754_pow+0x10c>
 8003a88:	008ffc34 	movhi	r2,16368
 8003a8c:	002d883a 	mov	r22,zero
 8003a90:	a0833616 	blt	r20,r2,800476c <__ieee754_pow+0xf90>
 8003a94:	883f9216 	blt	r17,zero,80038e0 <__ieee754_pow+0x104>
 8003a98:	8807883a 	mov	r3,r17
 8003a9c:	003f6906 	br	8003844 <__ieee754_pow+0x68>
 8003aa0:	a95ffc2c 	andhi	r5,r21,32752
 8003aa4:	2802d51e 	bne	r5,zero,80045fc <__ieee754_pow+0xe20>
 8003aa8:	180b883a 	mov	r5,r3
 8003aac:	000d883a 	mov	r6,zero
 8003ab0:	01d0d034 	movhi	r7,17216
 8003ab4:	800712c0 	call	800712c <__muldf3>
 8003ab8:	102d883a 	mov	r22,r2
 8003abc:	1829883a 	mov	r20,r3
 8003ac0:	017ff2c4 	movi	r5,-53
 8003ac4:	a009d53a 	srai	r4,r20,20
 8003ac8:	00c00434 	movhi	r3,16
 8003acc:	18ffffc4 	addi	r3,r3,-1
 8003ad0:	00800134 	movhi	r2,4
 8003ad4:	213f0044 	addi	r4,r4,-1023
 8003ad8:	a0c6703a 	and	r3,r20,r3
 8003adc:	10a62384 	addi	r2,r2,-26482
 8003ae0:	2159883a 	add	r12,r4,r5
 8003ae4:	1f0ffc34 	orhi	fp,r3,16368
 8003ae8:	10c0060e 	bge	r2,r3,8003b04 <__ieee754_pow+0x328>
 8003aec:	00800334 	movhi	r2,12
 8003af0:	10ad9e44 	addi	r2,r2,-18823
 8003af4:	10c34e0e 	bge	r2,r3,8004830 <__ieee754_pow+0x1054>
 8003af8:	00bffc34 	movhi	r2,65520
 8003afc:	63000044 	addi	r12,r12,1
 8003b00:	e0b9883a 	add	fp,fp,r2
 8003b04:	d8000015 	stw	zero,0(sp)
 8003b08:	d8000115 	stw	zero,4(sp)
 8003b0c:	d8000a15 	stw	zero,40(sp)
 8003b10:	001f883a 	mov	r15,zero
 8003b14:	002f883a 	mov	r23,zero
 8003b18:	034ffc34 	movhi	r13,16368
 8003b1c:	680f883a 	mov	r7,r13
 8003b20:	b009883a 	mov	r4,r22
 8003b24:	e00b883a 	mov	r5,fp
 8003b28:	000d883a 	mov	r6,zero
 8003b2c:	dbc00915 	stw	r15,36(sp)
 8003b30:	db000815 	stw	r12,32(sp)
 8003b34:	db400215 	stw	r13,8(sp)
 8003b38:	80078d40 	call	80078d4 <__subdf3>
 8003b3c:	db400217 	ldw	r13,8(sp)
 8003b40:	b009883a 	mov	r4,r22
 8003b44:	e00b883a 	mov	r5,fp
 8003b48:	680f883a 	mov	r7,r13
 8003b4c:	000d883a 	mov	r6,zero
 8003b50:	db400615 	stw	r13,24(sp)
 8003b54:	d8800315 	stw	r2,12(sp)
 8003b58:	d8c00215 	stw	r3,8(sp)
 8003b5c:	8005c200 	call	8005c20 <__adddf3>
 8003b60:	100d883a 	mov	r6,r2
 8003b64:	180f883a 	mov	r7,r3
 8003b68:	0009883a 	mov	r4,zero
 8003b6c:	014ffc34 	movhi	r5,16368
 8003b70:	80065980 	call	8006598 <__divdf3>
 8003b74:	dac00217 	ldw	r11,8(sp)
 8003b78:	da400317 	ldw	r9,12(sp)
 8003b7c:	100d883a 	mov	r6,r2
 8003b80:	580b883a 	mov	r5,r11
 8003b84:	4809883a 	mov	r4,r9
 8003b88:	180f883a 	mov	r7,r3
 8003b8c:	d8800515 	stw	r2,20(sp)
 8003b90:	d8c00415 	stw	r3,16(sp)
 8003b94:	800712c0 	call	800712c <__muldf3>
 8003b98:	e009d07a 	srai	r4,fp,1
 8003b9c:	01400234 	movhi	r5,8
 8003ba0:	000d883a 	mov	r6,zero
 8003ba4:	21080034 	orhi	r4,r4,8192
 8003ba8:	2149883a 	add	r4,r4,r5
 8003bac:	25ef883a 	add	r23,r4,r23
 8003bb0:	b80f883a 	mov	r7,r23
 8003bb4:	0009883a 	mov	r4,zero
 8003bb8:	180b883a 	mov	r5,r3
 8003bbc:	1829883a 	mov	r20,r3
 8003bc0:	102b883a 	mov	r21,r2
 8003bc4:	800712c0 	call	800712c <__muldf3>
 8003bc8:	da400317 	ldw	r9,12(sp)
 8003bcc:	dac00217 	ldw	r11,8(sp)
 8003bd0:	100d883a 	mov	r6,r2
 8003bd4:	4809883a 	mov	r4,r9
 8003bd8:	580b883a 	mov	r5,r11
 8003bdc:	180f883a 	mov	r7,r3
 8003be0:	80078d40 	call	80078d4 <__subdf3>
 8003be4:	db400617 	ldw	r13,24(sp)
 8003be8:	b80b883a 	mov	r5,r23
 8003bec:	000d883a 	mov	r6,zero
 8003bf0:	680f883a 	mov	r7,r13
 8003bf4:	0009883a 	mov	r4,zero
 8003bf8:	182f883a 	mov	r23,r3
 8003bfc:	d8800215 	stw	r2,8(sp)
 8003c00:	80078d40 	call	80078d4 <__subdf3>
 8003c04:	b009883a 	mov	r4,r22
 8003c08:	e00b883a 	mov	r5,fp
 8003c0c:	100d883a 	mov	r6,r2
 8003c10:	180f883a 	mov	r7,r3
 8003c14:	80078d40 	call	80078d4 <__subdf3>
 8003c18:	a00f883a 	mov	r7,r20
 8003c1c:	000d883a 	mov	r6,zero
 8003c20:	1009883a 	mov	r4,r2
 8003c24:	180b883a 	mov	r5,r3
 8003c28:	800712c0 	call	800712c <__muldf3>
 8003c2c:	dac00217 	ldw	r11,8(sp)
 8003c30:	b80b883a 	mov	r5,r23
 8003c34:	100d883a 	mov	r6,r2
 8003c38:	5809883a 	mov	r4,r11
 8003c3c:	180f883a 	mov	r7,r3
 8003c40:	80078d40 	call	80078d4 <__subdf3>
 8003c44:	da000417 	ldw	r8,16(sp)
 8003c48:	da800517 	ldw	r10,20(sp)
 8003c4c:	1009883a 	mov	r4,r2
 8003c50:	400f883a 	mov	r7,r8
 8003c54:	500d883a 	mov	r6,r10
 8003c58:	180b883a 	mov	r5,r3
 8003c5c:	800712c0 	call	800712c <__muldf3>
 8003c60:	a80d883a 	mov	r6,r21
 8003c64:	a00f883a 	mov	r7,r20
 8003c68:	a809883a 	mov	r4,r21
 8003c6c:	a00b883a 	mov	r5,r20
 8003c70:	d8800415 	stw	r2,16(sp)
 8003c74:	d8c00315 	stw	r3,12(sp)
 8003c78:	800712c0 	call	800712c <__muldf3>
 8003c7c:	01929174 	movhi	r6,19013
 8003c80:	01cff2b4 	movhi	r7,16330
 8003c84:	3193bbc4 	addi	r6,r6,20207
 8003c88:	39df8a04 	addi	r7,r7,32296
 8003c8c:	1009883a 	mov	r4,r2
 8003c90:	180b883a 	mov	r5,r3
 8003c94:	102f883a 	mov	r23,r2
 8003c98:	182d883a 	mov	r22,r3
 8003c9c:	800712c0 	call	800712c <__muldf3>
 8003ca0:	01a4f2b4 	movhi	r6,37834
 8003ca4:	01cff3b4 	movhi	r7,16334
 8003ca8:	31b6d944 	addi	r6,r6,-9371
 8003cac:	39e19284 	addi	r7,r7,-31158
 8003cb0:	1009883a 	mov	r4,r2
 8003cb4:	180b883a 	mov	r5,r3
 8003cb8:	8005c200 	call	8005c20 <__adddf3>
 8003cbc:	b80d883a 	mov	r6,r23
 8003cc0:	b00f883a 	mov	r7,r22
 8003cc4:	1009883a 	mov	r4,r2
 8003cc8:	180b883a 	mov	r5,r3
 8003ccc:	800712c0 	call	800712c <__muldf3>
 8003cd0:	01aa4774 	movhi	r6,43293
 8003cd4:	01cff474 	movhi	r7,16337
 8003cd8:	31904044 	addi	r6,r6,16641
 8003cdc:	39dd1804 	addi	r7,r7,29792
 8003ce0:	1009883a 	mov	r4,r2
 8003ce4:	180b883a 	mov	r5,r3
 8003ce8:	8005c200 	call	8005c20 <__adddf3>
 8003cec:	b80d883a 	mov	r6,r23
 8003cf0:	b00f883a 	mov	r7,r22
 8003cf4:	1009883a 	mov	r4,r2
 8003cf8:	180b883a 	mov	r5,r3
 8003cfc:	800712c0 	call	800712c <__muldf3>
 8003d00:	019463f4 	movhi	r6,20879
 8003d04:	01cff574 	movhi	r7,16341
 8003d08:	31899344 	addi	r6,r6,9805
 8003d0c:	39d55544 	addi	r7,r7,21845
 8003d10:	1009883a 	mov	r4,r2
 8003d14:	180b883a 	mov	r5,r3
 8003d18:	8005c200 	call	8005c20 <__adddf3>
 8003d1c:	b80d883a 	mov	r6,r23
 8003d20:	b00f883a 	mov	r7,r22
 8003d24:	1009883a 	mov	r4,r2
 8003d28:	180b883a 	mov	r5,r3
 8003d2c:	800712c0 	call	800712c <__muldf3>
 8003d30:	01b6dc34 	movhi	r6,56176
 8003d34:	01cff6f4 	movhi	r7,16347
 8003d38:	31aaffc4 	addi	r6,r6,-21505
 8003d3c:	39db6d84 	addi	r7,r7,28086
 8003d40:	1009883a 	mov	r4,r2
 8003d44:	180b883a 	mov	r5,r3
 8003d48:	8005c200 	call	8005c20 <__adddf3>
 8003d4c:	b80d883a 	mov	r6,r23
 8003d50:	b00f883a 	mov	r7,r22
 8003d54:	1009883a 	mov	r4,r2
 8003d58:	180b883a 	mov	r5,r3
 8003d5c:	800712c0 	call	800712c <__muldf3>
 8003d60:	018cccf4 	movhi	r6,13107
 8003d64:	01cff8f4 	movhi	r7,16355
 8003d68:	318cc0c4 	addi	r6,r6,13059
 8003d6c:	39ccccc4 	addi	r7,r7,13107
 8003d70:	1009883a 	mov	r4,r2
 8003d74:	180b883a 	mov	r5,r3
 8003d78:	8005c200 	call	8005c20 <__adddf3>
 8003d7c:	b80d883a 	mov	r6,r23
 8003d80:	b00f883a 	mov	r7,r22
 8003d84:	b809883a 	mov	r4,r23
 8003d88:	b00b883a 	mov	r5,r22
 8003d8c:	1839883a 	mov	fp,r3
 8003d90:	d8800215 	stw	r2,8(sp)
 8003d94:	800712c0 	call	800712c <__muldf3>
 8003d98:	dac00217 	ldw	r11,8(sp)
 8003d9c:	e00b883a 	mov	r5,fp
 8003da0:	100d883a 	mov	r6,r2
 8003da4:	5809883a 	mov	r4,r11
 8003da8:	180f883a 	mov	r7,r3
 8003dac:	800712c0 	call	800712c <__muldf3>
 8003db0:	a00f883a 	mov	r7,r20
 8003db4:	a809883a 	mov	r4,r21
 8003db8:	a00b883a 	mov	r5,r20
 8003dbc:	000d883a 	mov	r6,zero
 8003dc0:	102f883a 	mov	r23,r2
 8003dc4:	182d883a 	mov	r22,r3
 8003dc8:	8005c200 	call	8005c20 <__adddf3>
 8003dcc:	da800417 	ldw	r10,16(sp)
 8003dd0:	da400317 	ldw	r9,12(sp)
 8003dd4:	1009883a 	mov	r4,r2
 8003dd8:	500d883a 	mov	r6,r10
 8003ddc:	480f883a 	mov	r7,r9
 8003de0:	180b883a 	mov	r5,r3
 8003de4:	da800715 	stw	r10,28(sp)
 8003de8:	da400615 	stw	r9,24(sp)
 8003dec:	800712c0 	call	800712c <__muldf3>
 8003df0:	b80d883a 	mov	r6,r23
 8003df4:	b00f883a 	mov	r7,r22
 8003df8:	1009883a 	mov	r4,r2
 8003dfc:	180b883a 	mov	r5,r3
 8003e00:	8005c200 	call	8005c20 <__adddf3>
 8003e04:	a00f883a 	mov	r7,r20
 8003e08:	a00b883a 	mov	r5,r20
 8003e0c:	000d883a 	mov	r6,zero
 8003e10:	0009883a 	mov	r4,zero
 8003e14:	d8800315 	stw	r2,12(sp)
 8003e18:	d8c00215 	stw	r3,8(sp)
 8003e1c:	800712c0 	call	800712c <__muldf3>
 8003e20:	000d883a 	mov	r6,zero
 8003e24:	01d00234 	movhi	r7,16392
 8003e28:	1009883a 	mov	r4,r2
 8003e2c:	180b883a 	mov	r5,r3
 8003e30:	d8800515 	stw	r2,20(sp)
 8003e34:	d8c00415 	stw	r3,16(sp)
 8003e38:	8005c200 	call	8005c20 <__adddf3>
 8003e3c:	da000317 	ldw	r8,12(sp)
 8003e40:	dac00217 	ldw	r11,8(sp)
 8003e44:	1009883a 	mov	r4,r2
 8003e48:	400d883a 	mov	r6,r8
 8003e4c:	580f883a 	mov	r7,r11
 8003e50:	180b883a 	mov	r5,r3
 8003e54:	8005c200 	call	8005c20 <__adddf3>
 8003e58:	a00b883a 	mov	r5,r20
 8003e5c:	000d883a 	mov	r6,zero
 8003e60:	180f883a 	mov	r7,r3
 8003e64:	0009883a 	mov	r4,zero
 8003e68:	182d883a 	mov	r22,r3
 8003e6c:	800712c0 	call	800712c <__muldf3>
 8003e70:	b00b883a 	mov	r5,r22
 8003e74:	000d883a 	mov	r6,zero
 8003e78:	01d00234 	movhi	r7,16392
 8003e7c:	0009883a 	mov	r4,zero
 8003e80:	1039883a 	mov	fp,r2
 8003e84:	182f883a 	mov	r23,r3
 8003e88:	80078d40 	call	80078d4 <__subdf3>
 8003e8c:	db800517 	ldw	r14,20(sp)
 8003e90:	db400417 	ldw	r13,16(sp)
 8003e94:	1009883a 	mov	r4,r2
 8003e98:	700d883a 	mov	r6,r14
 8003e9c:	680f883a 	mov	r7,r13
 8003ea0:	180b883a 	mov	r5,r3
 8003ea4:	80078d40 	call	80078d4 <__subdf3>
 8003ea8:	da000317 	ldw	r8,12(sp)
 8003eac:	dac00217 	ldw	r11,8(sp)
 8003eb0:	100d883a 	mov	r6,r2
 8003eb4:	4009883a 	mov	r4,r8
 8003eb8:	580b883a 	mov	r5,r11
 8003ebc:	180f883a 	mov	r7,r3
 8003ec0:	80078d40 	call	80078d4 <__subdf3>
 8003ec4:	a80d883a 	mov	r6,r21
 8003ec8:	a00f883a 	mov	r7,r20
 8003ecc:	1009883a 	mov	r4,r2
 8003ed0:	180b883a 	mov	r5,r3
 8003ed4:	800712c0 	call	800712c <__muldf3>
 8003ed8:	da800717 	ldw	r10,28(sp)
 8003edc:	da400617 	ldw	r9,24(sp)
 8003ee0:	b00f883a 	mov	r7,r22
 8003ee4:	5009883a 	mov	r4,r10
 8003ee8:	480b883a 	mov	r5,r9
 8003eec:	000d883a 	mov	r6,zero
 8003ef0:	102b883a 	mov	r21,r2
 8003ef4:	1829883a 	mov	r20,r3
 8003ef8:	800712c0 	call	800712c <__muldf3>
 8003efc:	a809883a 	mov	r4,r21
 8003f00:	a00b883a 	mov	r5,r20
 8003f04:	100d883a 	mov	r6,r2
 8003f08:	180f883a 	mov	r7,r3
 8003f0c:	8005c200 	call	8005c20 <__adddf3>
 8003f10:	e009883a 	mov	r4,fp
 8003f14:	b80b883a 	mov	r5,r23
 8003f18:	100d883a 	mov	r6,r2
 8003f1c:	180f883a 	mov	r7,r3
 8003f20:	102d883a 	mov	r22,r2
 8003f24:	182b883a 	mov	r21,r3
 8003f28:	8005c200 	call	8005c20 <__adddf3>
 8003f2c:	01cffbf4 	movhi	r7,16367
 8003f30:	01b80034 	movhi	r6,57344
 8003f34:	39f1c244 	addi	r7,r7,-14583
 8003f38:	0009883a 	mov	r4,zero
 8003f3c:	180b883a 	mov	r5,r3
 8003f40:	1829883a 	mov	r20,r3
 8003f44:	800712c0 	call	800712c <__muldf3>
 8003f48:	e00d883a 	mov	r6,fp
 8003f4c:	b80f883a 	mov	r7,r23
 8003f50:	a00b883a 	mov	r5,r20
 8003f54:	0009883a 	mov	r4,zero
 8003f58:	1039883a 	mov	fp,r2
 8003f5c:	182f883a 	mov	r23,r3
 8003f60:	80078d40 	call	80078d4 <__subdf3>
 8003f64:	b009883a 	mov	r4,r22
 8003f68:	a80b883a 	mov	r5,r21
 8003f6c:	100d883a 	mov	r6,r2
 8003f70:	180f883a 	mov	r7,r3
 8003f74:	80078d40 	call	80078d4 <__subdf3>
 8003f78:	01b70eb4 	movhi	r6,56378
 8003f7c:	01cffbf4 	movhi	r7,16367
 8003f80:	3180ff44 	addi	r6,r6,1021
 8003f84:	39f1c244 	addi	r7,r7,-14583
 8003f88:	1009883a 	mov	r4,r2
 8003f8c:	180b883a 	mov	r5,r3
 8003f90:	800712c0 	call	800712c <__muldf3>
 8003f94:	018516f4 	movhi	r6,5211
 8003f98:	01ef8fb4 	movhi	r7,48702
 8003f9c:	a00b883a 	mov	r5,r20
 8003fa0:	31807d44 	addi	r6,r6,501
 8003fa4:	39cbf804 	addi	r7,r7,12256
 8003fa8:	0009883a 	mov	r4,zero
 8003fac:	102d883a 	mov	r22,r2
 8003fb0:	182b883a 	mov	r21,r3
 8003fb4:	800712c0 	call	800712c <__muldf3>
 8003fb8:	b009883a 	mov	r4,r22
 8003fbc:	a80b883a 	mov	r5,r21
 8003fc0:	100d883a 	mov	r6,r2
 8003fc4:	180f883a 	mov	r7,r3
 8003fc8:	8005c200 	call	8005c20 <__adddf3>
 8003fcc:	dbc00917 	ldw	r15,36(sp)
 8003fd0:	d9800a17 	ldw	r6,40(sp)
 8003fd4:	180b883a 	mov	r5,r3
 8003fd8:	780f883a 	mov	r7,r15
 8003fdc:	1009883a 	mov	r4,r2
 8003fe0:	8005c200 	call	8005c20 <__adddf3>
 8003fe4:	db000817 	ldw	r12,32(sp)
 8003fe8:	102d883a 	mov	r22,r2
 8003fec:	182b883a 	mov	r21,r3
 8003ff0:	6009883a 	mov	r4,r12
 8003ff4:	800825c0 	call	800825c <__floatsidf>
 8003ff8:	b00d883a 	mov	r6,r22
 8003ffc:	a80f883a 	mov	r7,r21
 8004000:	e009883a 	mov	r4,fp
 8004004:	b80b883a 	mov	r5,r23
 8004008:	d8800315 	stw	r2,12(sp)
 800400c:	d8c00215 	stw	r3,8(sp)
 8004010:	8005c200 	call	8005c20 <__adddf3>
 8004014:	d9800017 	ldw	r6,0(sp)
 8004018:	d9c00117 	ldw	r7,4(sp)
 800401c:	1009883a 	mov	r4,r2
 8004020:	180b883a 	mov	r5,r3
 8004024:	8005c200 	call	8005c20 <__adddf3>
 8004028:	da800317 	ldw	r10,12(sp)
 800402c:	da400217 	ldw	r9,8(sp)
 8004030:	1009883a 	mov	r4,r2
 8004034:	500d883a 	mov	r6,r10
 8004038:	480f883a 	mov	r7,r9
 800403c:	180b883a 	mov	r5,r3
 8004040:	8005c200 	call	8005c20 <__adddf3>
 8004044:	da800317 	ldw	r10,12(sp)
 8004048:	da400217 	ldw	r9,8(sp)
 800404c:	0009883a 	mov	r4,zero
 8004050:	500d883a 	mov	r6,r10
 8004054:	480f883a 	mov	r7,r9
 8004058:	180b883a 	mov	r5,r3
 800405c:	1829883a 	mov	r20,r3
 8004060:	80078d40 	call	80078d4 <__subdf3>
 8004064:	d9800017 	ldw	r6,0(sp)
 8004068:	d9c00117 	ldw	r7,4(sp)
 800406c:	1009883a 	mov	r4,r2
 8004070:	180b883a 	mov	r5,r3
 8004074:	80078d40 	call	80078d4 <__subdf3>
 8004078:	e00d883a 	mov	r6,fp
 800407c:	b80f883a 	mov	r7,r23
 8004080:	1009883a 	mov	r4,r2
 8004084:	180b883a 	mov	r5,r3
 8004088:	80078d40 	call	80078d4 <__subdf3>
 800408c:	b009883a 	mov	r4,r22
 8004090:	100d883a 	mov	r6,r2
 8004094:	180f883a 	mov	r7,r3
 8004098:	a80b883a 	mov	r5,r21
 800409c:	94bfffc4 	addi	r18,r18,-1
 80040a0:	80078d40 	call	80078d4 <__subdf3>
 80040a4:	94e6b03a 	or	r19,r18,r19
 80040a8:	102f883a 	mov	r23,r2
 80040ac:	182d883a 	mov	r22,r3
 80040b0:	9801501e 	bne	r19,zero,80045f4 <__ieee754_pow+0xe18>
 80040b4:	04effc34 	movhi	r19,49136
 80040b8:	880f883a 	mov	r7,r17
 80040bc:	8009883a 	mov	r4,r16
 80040c0:	880b883a 	mov	r5,r17
 80040c4:	000d883a 	mov	r6,zero
 80040c8:	80078d40 	call	80078d4 <__subdf3>
 80040cc:	a00f883a 	mov	r7,r20
 80040d0:	000d883a 	mov	r6,zero
 80040d4:	1009883a 	mov	r4,r2
 80040d8:	180b883a 	mov	r5,r3
 80040dc:	800712c0 	call	800712c <__muldf3>
 80040e0:	800d883a 	mov	r6,r16
 80040e4:	880f883a 	mov	r7,r17
 80040e8:	b809883a 	mov	r4,r23
 80040ec:	b00b883a 	mov	r5,r22
 80040f0:	102b883a 	mov	r21,r2
 80040f4:	1825883a 	mov	r18,r3
 80040f8:	800712c0 	call	800712c <__muldf3>
 80040fc:	a809883a 	mov	r4,r21
 8004100:	900b883a 	mov	r5,r18
 8004104:	100d883a 	mov	r6,r2
 8004108:	180f883a 	mov	r7,r3
 800410c:	8005c200 	call	8005c20 <__adddf3>
 8004110:	880f883a 	mov	r7,r17
 8004114:	a00b883a 	mov	r5,r20
 8004118:	000d883a 	mov	r6,zero
 800411c:	0009883a 	mov	r4,zero
 8004120:	1029883a 	mov	r20,r2
 8004124:	182b883a 	mov	r21,r3
 8004128:	800712c0 	call	800712c <__muldf3>
 800412c:	a80b883a 	mov	r5,r21
 8004130:	100d883a 	mov	r6,r2
 8004134:	180f883a 	mov	r7,r3
 8004138:	a009883a 	mov	r4,r20
 800413c:	1023883a 	mov	r17,r2
 8004140:	1825883a 	mov	r18,r3
 8004144:	8005c200 	call	8005c20 <__adddf3>
 8004148:	01502434 	movhi	r5,16528
 800414c:	1821883a 	mov	r16,r3
 8004150:	8817883a 	mov	r11,r17
 8004154:	902f883a 	mov	r23,r18
 8004158:	102d883a 	mov	r22,r2
 800415c:	1839883a 	mov	fp,r3
 8004160:	1940fe16 	blt	r3,r5,800455c <__ieee754_pow+0xd80>
 8004164:	1947c83a 	sub	r3,r3,r5
 8004168:	1d86b03a 	or	r3,r3,r22
 800416c:	1801871e 	bne	r3,zero,800478c <__ieee754_pow+0xfb0>
 8004170:	01994b34 	movhi	r6,25900
 8004174:	01cf25f4 	movhi	r7,15511
 8004178:	31a0bf84 	addi	r6,r6,-32002
 800417c:	39c551c4 	addi	r7,r7,5447
 8004180:	a009883a 	mov	r4,r20
 8004184:	a80b883a 	mov	r5,r21
 8004188:	8005c200 	call	8005c20 <__adddf3>
 800418c:	880d883a 	mov	r6,r17
 8004190:	900f883a 	mov	r7,r18
 8004194:	b009883a 	mov	r4,r22
 8004198:	800b883a 	mov	r5,r16
 800419c:	1039883a 	mov	fp,r2
 80041a0:	182f883a 	mov	r23,r3
 80041a4:	80078d40 	call	80078d4 <__subdf3>
 80041a8:	100d883a 	mov	r6,r2
 80041ac:	180f883a 	mov	r7,r3
 80041b0:	e009883a 	mov	r4,fp
 80041b4:	b80b883a 	mov	r5,r23
 80041b8:	8006f4c0 	call	8006f4c <__gedf2>
 80041bc:	00817316 	blt	zero,r2,800478c <__ieee754_pow+0xfb0>
 80041c0:	8009d53a 	srai	r4,r16,20
 80041c4:	2101ffcc 	andi	r4,r4,2047
 80041c8:	00c00434 	movhi	r3,16
 80041cc:	213f0084 	addi	r4,r4,-1022
 80041d0:	1909d83a 	sra	r4,r3,r4
 80041d4:	00800434 	movhi	r2,16
 80041d8:	10bfffc4 	addi	r2,r2,-1
 80041dc:	2407883a 	add	r3,r4,r16
 80041e0:	1809d53a 	srai	r4,r3,20
 80041e4:	18ac703a 	and	r22,r3,r2
 80041e8:	b5800434 	orhi	r22,r22,16
 80041ec:	2101ffcc 	andi	r4,r4,2047
 80041f0:	213f0044 	addi	r4,r4,-1023
 80041f4:	110fd83a 	sra	r7,r2,r4
 80041f8:	00800504 	movi	r2,20
 80041fc:	1109c83a 	sub	r4,r2,r4
 8004200:	b105d83a 	sra	r2,r22,r4
 8004204:	01ce303a 	nor	r7,zero,r7
 8004208:	38ce703a 	and	r7,r7,r3
 800420c:	d8800315 	stw	r2,12(sp)
 8004210:	8000020e 	bge	r16,zero,800421c <__ieee754_pow+0xa40>
 8004214:	0085c83a 	sub	r2,zero,r2
 8004218:	d8800315 	stw	r2,12(sp)
 800421c:	000d883a 	mov	r6,zero
 8004220:	8809883a 	mov	r4,r17
 8004224:	900b883a 	mov	r5,r18
 8004228:	80078d40 	call	80078d4 <__subdf3>
 800422c:	100d883a 	mov	r6,r2
 8004230:	180f883a 	mov	r7,r3
 8004234:	a009883a 	mov	r4,r20
 8004238:	a80b883a 	mov	r5,r21
 800423c:	182f883a 	mov	r23,r3
 8004240:	d8800015 	stw	r2,0(sp)
 8004244:	8005c200 	call	8005c20 <__adddf3>
 8004248:	d8800317 	ldw	r2,12(sp)
 800424c:	dac00017 	ldw	r11,0(sp)
 8004250:	1839883a 	mov	fp,r3
 8004254:	1014953a 	slli	r10,r2,20
 8004258:	01cff9b4 	movhi	r7,16358
 800425c:	e00b883a 	mov	r5,fp
 8004260:	000d883a 	mov	r6,zero
 8004264:	39cb90c4 	addi	r7,r7,11843
 8004268:	0009883a 	mov	r4,zero
 800426c:	da800215 	stw	r10,8(sp)
 8004270:	dac00015 	stw	r11,0(sp)
 8004274:	800712c0 	call	800712c <__muldf3>
 8004278:	dac00017 	ldw	r11,0(sp)
 800427c:	b80f883a 	mov	r7,r23
 8004280:	e00b883a 	mov	r5,fp
 8004284:	580d883a 	mov	r6,r11
 8004288:	0009883a 	mov	r4,zero
 800428c:	102d883a 	mov	r22,r2
 8004290:	182f883a 	mov	r23,r3
 8004294:	80078d40 	call	80078d4 <__subdf3>
 8004298:	a009883a 	mov	r4,r20
 800429c:	a80b883a 	mov	r5,r21
 80042a0:	100d883a 	mov	r6,r2
 80042a4:	180f883a 	mov	r7,r3
 80042a8:	80078d40 	call	80078d4 <__subdf3>
 80042ac:	01bfbeb4 	movhi	r6,65274
 80042b0:	01cff9b4 	movhi	r7,16358
 80042b4:	318e7bc4 	addi	r6,r6,14831
 80042b8:	39cb9084 	addi	r7,r7,11842
 80042bc:	1009883a 	mov	r4,r2
 80042c0:	180b883a 	mov	r5,r3
 80042c4:	800712c0 	call	800712c <__muldf3>
 80042c8:	01832a34 	movhi	r6,3240
 80042cc:	01ef8834 	movhi	r7,48672
 80042d0:	e00b883a 	mov	r5,fp
 80042d4:	319b0e44 	addi	r6,r6,27705
 80042d8:	39d71844 	addi	r7,r7,23649
 80042dc:	0009883a 	mov	r4,zero
 80042e0:	1023883a 	mov	r17,r2
 80042e4:	1821883a 	mov	r16,r3
 80042e8:	800712c0 	call	800712c <__muldf3>
 80042ec:	8809883a 	mov	r4,r17
 80042f0:	800b883a 	mov	r5,r16
 80042f4:	100d883a 	mov	r6,r2
 80042f8:	180f883a 	mov	r7,r3
 80042fc:	8005c200 	call	8005c20 <__adddf3>
 8004300:	100d883a 	mov	r6,r2
 8004304:	180f883a 	mov	r7,r3
 8004308:	b009883a 	mov	r4,r22
 800430c:	b80b883a 	mov	r5,r23
 8004310:	1029883a 	mov	r20,r2
 8004314:	1825883a 	mov	r18,r3
 8004318:	8005c200 	call	8005c20 <__adddf3>
 800431c:	b00d883a 	mov	r6,r22
 8004320:	b80f883a 	mov	r7,r23
 8004324:	1009883a 	mov	r4,r2
 8004328:	180b883a 	mov	r5,r3
 800432c:	1023883a 	mov	r17,r2
 8004330:	1821883a 	mov	r16,r3
 8004334:	80078d40 	call	80078d4 <__subdf3>
 8004338:	a009883a 	mov	r4,r20
 800433c:	900b883a 	mov	r5,r18
 8004340:	100d883a 	mov	r6,r2
 8004344:	180f883a 	mov	r7,r3
 8004348:	80078d40 	call	80078d4 <__subdf3>
 800434c:	880d883a 	mov	r6,r17
 8004350:	800f883a 	mov	r7,r16
 8004354:	8809883a 	mov	r4,r17
 8004358:	800b883a 	mov	r5,r16
 800435c:	1039883a 	mov	fp,r2
 8004360:	182b883a 	mov	r21,r3
 8004364:	800712c0 	call	800712c <__muldf3>
 8004368:	019caff4 	movhi	r6,29375
 800436c:	01cf99b4 	movhi	r7,15974
 8004370:	31a93404 	addi	r6,r6,-23344
 8004374:	39cdda44 	addi	r7,r7,14185
 8004378:	1009883a 	mov	r4,r2
 800437c:	180b883a 	mov	r5,r3
 8004380:	1029883a 	mov	r20,r2
 8004384:	1825883a 	mov	r18,r3
 8004388:	800712c0 	call	800712c <__muldf3>
 800438c:	01b174b4 	movhi	r6,50642
 8004390:	01cfaf34 	movhi	r7,16060
 8004394:	319afc44 	addi	r6,r6,27633
 8004398:	39ef5044 	addi	r7,r7,-17087
 800439c:	1009883a 	mov	r4,r2
 80043a0:	180b883a 	mov	r5,r3
 80043a4:	80078d40 	call	80078d4 <__subdf3>
 80043a8:	a00d883a 	mov	r6,r20
 80043ac:	900f883a 	mov	r7,r18
 80043b0:	1009883a 	mov	r4,r2
 80043b4:	180b883a 	mov	r5,r3
